; ModuleID = 'LLVMDialectModule'
source_filename = "LLVMDialectModule"
target datalayout = "e-m:e-p270:32:32-p271:32:32-p272:64:64-i64:64-f80:128-n8:16:32:64-S128"
target triple = "x86_64-unknown-linux-gnu"

%struct._IO_FILE = type { i32, i8*, i8*, i8*, i8*, i8*, i8*, i8*, i8*, i8*, i8*, i8*, %struct._IO_marker*, %struct._IO_FILE*, i32, i32, i64, i16, i8, [1 x i8], i8*, i64, %struct._IO_codecvt*, %struct._IO_wide_data*, %struct._IO_FILE*, i8*, i64, i32, [20 x i8] }
%struct._IO_marker = type opaque
%struct._IO_codecvt = type opaque
%struct._IO_wide_data = type opaque
%class.anon.0 = type { %class.SourcePicker* }
%class.SourcePicker = type { i32, [4 x i8], %"class.std::mersenne_twister_engine", %"class.std::uniform_int_distribution", %class.CSRGraph* }
%"class.std::mersenne_twister_engine" = type { [624 x i64], i64 }
%"class.std::uniform_int_distribution" = type { %"struct.std::uniform_int_distribution<>::param_type" }
%"struct.std::uniform_int_distribution<>::param_type" = type { i32, i32 }
%class.CSRGraph = type { i8, [7 x i8], i64, i64, %struct.NodeWeight**, %struct.NodeWeight*, %struct.NodeWeight**, %struct.NodeWeight* }
%struct.NodeWeight = type { i32, i32 }
%class.anon = type { %class.SourcePicker*, %class.CLDelta* }
%class.CLDelta = type { %class.CLApp.base, i32 }
%class.CLApp.base = type <{ %class.CLBase.base, i8, i32, i64, i8 }>
%class.CLBase.base = type <{ i32, [4 x i8], i8**, i8*, [128 x i8], %"class.std::vector", i32, i32, [128 x i8], i8, i8, i8 }>
%"class.std::vector" = type { %"struct.std::_Vector_base" }
%"struct.std::_Vector_base" = type { %"struct.std::_Vector_base<char *, std::allocator<char *>>::_Vector_impl" }
%"struct.std::_Vector_base<char *, std::allocator<char *>>::_Vector_impl" = type { %"struct.std::_Vector_base<char *, std::allocator<char *>>::_Vector_impl_data" }
%"struct.std::_Vector_base<char *, std::allocator<char *>>::_Vector_impl_data" = type { i8**, i8**, i8** }
%class.BuilderBase = type { %class.CLBase*, i8, i8, i8, [5 x i8], i64 }
%class.CLBase = type <{ i32, [4 x i8], i8**, i8*, [128 x i8], %"class.std::vector", i32, i32, [128 x i8], i8, i8, i8, [5 x i8] }>
%class.CLApp = type <{ %class.CLBase.base, i8, i32, i64, i8, [7 x i8] }>
%class.pvector.1 = type { %struct.EdgePair*, %struct.EdgePair*, %struct.EdgePair* }
%struct.EdgePair = type { i32, %struct.NodeWeight }
%class.Generator = type { i32, [4 x i8], i64, i64 }
%"class.std::__cxx11::basic_string" = type { %"struct.std::__cxx11::basic_string<char>::_Alloc_hider", i64, %union.anon }
%"struct.std::__cxx11::basic_string<char>::_Alloc_hider" = type { i8* }
%union.anon = type { i64, [8 x i8] }
%class.Reader = type { %"class.std::__cxx11::basic_string" }
%"class.std::allocator.2" = type { i8 }
%class.pvector = type { i32*, i32*, i32* }
%"class.std::reference_wrapper.5" = type { %class.pvector* }
%"class.std::reference_wrapper" = type { %class.CSRGraph* }
%class.Timer = type { %"struct.std::chrono::time_point", %"struct.std::chrono::time_point" }
%"struct.std::chrono::time_point" = type { %"struct.std::chrono::duration" }
%"struct.std::chrono::duration" = type { i64 }
%class.anon.14 = type { i8 }
%class.pvector.15 = type { i64*, i64*, i64* }
%"struct.std::chrono::duration.16" = type { double }
%"struct.__gnu_cxx::__ops::_Iter_pred" = type { %class.anon.14 }
%"class.__gnu_cxx::__normal_iterator" = type { i8** }
%"class.std::allocator" = type { i8 }
%"struct.std::__false_type" = type { i8 }
%"class.__gnu_cxx::new_allocator.3" = type { i8 }
%"class.std::uniform_real_distribution" = type { %"struct.std::uniform_real_distribution<float>::param_type" }
%"struct.std::uniform_real_distribution<float>::param_type" = type { float, float }
%class.anon.17 = type { i8 }
%"class.CSRGraph<int, NodeWeight<int, int>, true>::Neighborhood" = type { i32, %struct.NodeWeight**, i64 }
%"class.__gnu_cxx::__normal_iterator.29" = type { i32* }
%"class.std::vector.24" = type { %"struct.std::_Vector_base.25" }
%"struct.std::_Vector_base.25" = type { %"struct.std::_Vector_base<int, std::allocator<int>>::_Vector_impl" }
%"struct.std::_Vector_base<int, std::allocator<int>>::_Vector_impl" = type { %"struct.std::_Vector_base<int, std::allocator<int>>::_Vector_impl_data" }
%"struct.std::_Vector_base<int, std::allocator<int>>::_Vector_impl_data" = type { i32*, i32*, i32* }
%"class.std::vector.19" = type { %"struct.std::_Vector_base.20" }
%"struct.std::_Vector_base.20" = type { %"struct.std::_Vector_base<std::vector<int>, std::allocator<std::vector<int>>>::_Vector_impl" }
%"struct.std::_Vector_base<std::vector<int>, std::allocator<std::vector<int>>>::_Vector_impl" = type { %"struct.std::_Vector_base<std::vector<int>, std::allocator<std::vector<int>>>::_Vector_impl_data" }
%"struct.std::_Vector_base<std::vector<int>, std::allocator<std::vector<int>>>::_Vector_impl_data" = type { %"class.std::vector.24"*, %"class.std::vector.24"*, %"class.std::vector.24"* }
%"class.std::allocator.21" = type { i8 }
%class.RangeIter = type { i32 }
%class.Range = type { i32, i32 }
%"struct.std::pair" = type { i32, i32 }
%"class.std::priority_queue" = type <{ %"class.std::vector.30", %"struct.std::greater", [7 x i8] }>
%"class.std::vector.30" = type { %"struct.std::_Vector_base.31" }
%"struct.std::_Vector_base.31" = type { %"struct.std::_Vector_base<std::pair<int, int>, std::allocator<std::pair<int, int>>>::_Vector_impl" }
%"struct.std::_Vector_base<std::pair<int, int>, std::allocator<std::pair<int, int>>>::_Vector_impl" = type { %"struct.std::_Vector_base<std::pair<int, int>, std::allocator<std::pair<int, int>>>::_Vector_impl_data" }
%"struct.std::_Vector_base<std::pair<int, int>, std::allocator<std::pair<int, int>>>::_Vector_impl_data" = type { %"struct.std::pair"*, %"struct.std::pair"*, %"struct.std::pair"* }
%"struct.std::greater" = type { i8 }
%"class.__gnu_cxx::new_allocator" = type { i8 }
%"struct.std::random_access_iterator_tag" = type { i8 }
%"struct.std::forward_iterator_tag" = type { i8 }
%"struct.__gnu_cxx::__ops::_Iter_less_iter" = type { i8 }
%"struct.__gnu_cxx::__ops::_Iter_equal_to_iter" = type { i8 }
%"struct.__gnu_cxx::__ops::_Iter_pred.35" = type { %class.anon.17 }
%"struct.__gnu_cxx::__ops::_Iter_less_val" = type { i8 }
%"struct.__gnu_cxx::__ops::_Iter_equals_val" = type { i32* }
%"class.__gnu_cxx::__normal_iterator.36" = type { i32* }
%"class.std::allocator.26" = type { i8 }
%"struct.std::chrono::duration.37" = type { double }
%"class.__gnu_cxx::__normal_iterator.38" = type { %"struct.std::pair"* }
%"struct.std::_Reference_wrapper_base_memfun" = type { i8 }
%"struct.std::_Reference_wrapper_base_memfun.6" = type { i8 }
%"struct.std::__is_move_insertable" = type { i8 }
%"class.std::move_iterator" = type { i8** }
%"struct.std::__detail::_Adaptor" = type { %"class.std::mersenne_twister_engine"* }
%"struct.std::uniform_int_distribution<unsigned long>::param_type" = type { i64, i64 }
%"class.std::uniform_int_distribution.39" = type { %"struct.std::uniform_int_distribution<unsigned long>::param_type" }
%"struct.std::pair.40" = type { i64, i64 }
%"class.__gnu_cxx::new_allocator.22" = type { i8 }
%"struct.__gnu_cxx::__ops::_Iter_comp_val" = type { %"struct.std::greater" }
%"class.__gnu_cxx::__normal_iterator.43" = type { %"struct.std::pair"* }
%"struct.__gnu_cxx::__ops::_Iter_comp_iter" = type { %"struct.std::greater" }
%"struct.std::_Reference_wrapper_base" = type { i8 }
%"struct.std::_Reference_wrapper_base.7" = type { i8 }
%"struct.std::integral_constant" = type { i8 }
%"struct.std::input_iterator_tag" = type { i8 }
%"class.__gnu_cxx::new_allocator.27" = type { i8 }
%"struct.std::__is_move_insertable.44" = type { i8 }
%"class.std::move_iterator.48" = type { i32* }
%"struct.std::binary_function" = type { i8 }
%"class.std::__pair_base" = type { i8 }
%"class.std::allocator.32" = type { i8 }
%"struct.std::_Weak_result_type" = type { i8 }
%"struct.std::_Refwrap_base_arg1" = type { i8 }
%"struct.std::_Refwrap_base_arg2" = type { i8 }
%"struct.std::_Weak_result_type.8" = type { i8 }
%"struct.std::_Refwrap_base_arg1.12" = type { i8 }
%"struct.std::_Refwrap_base_arg2.13" = type { i8 }
%"class.std::__pair_base.41" = type { i8 }
%"struct.__gnu_cxx::__ops::_Val_less_iter" = type { i8 }
%"struct.std::__is_move_insertable.49" = type { i8 }
%"class.std::move_iterator.53" = type { %"class.std::vector.24"* }
%"class.__gnu_cxx::new_allocator.33" = type { i8 }
%"struct.std::_Weak_result_type_memfun" = type { i8 }
%"struct.std::_Weak_result_type_memfun.9" = type { i8 }
%"struct.std::bidirectional_iterator_tag" = type { i8 }
%"struct.std::__is_move_insertable.54" = type { i8 }
%"class.std::move_iterator.58" = type { %"struct.std::pair"* }
%"struct.std::_Weak_result_type_impl" = type { i8 }
%"struct.std::_Weak_result_type_impl.10" = type { i8 }
%"struct.std::_Maybe_get_result_type" = type { i8 }
%"struct.std::_Maybe_get_result_type.11" = type { i8 }

@str83 = internal constant [26 x i8] c"vector::_M_default_append\00"
@str82 = internal constant [49 x i8] c"cannot create std::vector larger than max_size()\00"
@str81 = internal constant [42 x i8] c"basic_string::_M_construct null not valid\00"
@str80 = internal constant [4 x i8] c"%s\0A\00"
@str79 = internal constant [12 x i8] c"%5d%23.5lf\0A\00"
@str78 = internal constant [19 x i8] c"%5d%11ld  %10.5lf\0A\00"
@str77 = internal constant [55 x i8] c"%s: __pos (which is %zu) > this->size() (which is %zu)\00"
@str76 = internal constant [27 x i8] c"basic_string::basic_string\00"
@str75 = internal constant [26 x i8] c"vector::_M_realloc_insert\00"
@str74 = internal constant [14 x i8] c"%d: %d != %d\0A\00"
@str73 = internal constant [21 x i8] c"took %ld iterations\0A\00"
@str72 = internal constant [26 x i8] c"Call to realloc() failed\0A\00"
@str71 = internal constant [13 x i8] c"%c %d %d %d\0A\00"
@str70 = internal constant [10 x i8] c"%d %d %d\0A\00"
@str69 = internal constant [7 x i8] c"%d %d\0A\00"
@str68 = internal constant [21 x i8] c"basic_string::substr\00"
@str67 = internal constant [43 x i8] c"reduces memory usage during graph building\00"
@str66 = internal constant [35 x i8] c"average degree for synthetic graph\00"
@str65 = internal constant [7 x i8] c"degree\00"
@str64 = internal constant [38 x i8] c"generate 2^scale uniform-random graph\00"
@str63 = internal constant [33 x i8] c"generate 2^scale kronecker graph\00"
@str62 = internal constant [6 x i8] c"scale\00"
@str61 = internal constant [27 x i8] c"symmetrize input edge list\00"
@str60 = internal constant [21 x i8] c"load graph from file\00"
@str59 = internal constant [5 x i8] c"file\00"
@str58 = internal constant [24 x i8] c"print this help message\00"
@str57 = internal constant [12 x i8] c"f:g:hk:su:m\00"
@str56 = internal constant [11 x i8] c"%-20s:%7s\0A\00"
@str55 = internal constant [14 x i8] c"%-20s:%3.5lf\0A\00"
@str54 = internal constant [5 x i8] c"%ld\0A\00"
@str53 = internal constant [28 x i8] c"directed edges for degree: \00"
@str52 = internal constant [3 x i8] c"un\00"
@str51 = internal constant [29 x i8] c"Graph has %ld nodes and %ld \00"
@str50 = internal constant [11 x i8] c"Build Time\00"
@str49 = internal constant [14 x i8] c"Generate Time\00"
@str48 = internal constant [34 x i8] c" to a wider type and recompiling\0A\00"
@str47 = internal constant [57 x i8] c"Recommend changing NodeID (typedef'd in src/benchmark.h)\00"
@str46 = internal constant [25 x i8] c") too small to hold %ld\0A\00"
@str45 = internal constant [21 x i8] c"NodeID type (max: %d\00"
@str44 = internal constant [25 x i8] c"Unrecognized suffix: %s\0A\00"
@str43 = internal constant [5 x i8] c".mtx\00"
@str42 = internal constant [7 x i8] c".graph\00"
@str41 = internal constant [4 x i8] c".gr\00"
@str40 = internal constant [5 x i8] c".wel\00"
@str39 = internal constant [4 x i8] c".el\00"
@str38 = internal constant [10 x i8] c"Read Time\00"
@str37 = internal constant [23 x i8] c"Couldn't open file %s\0A\00"
@str36 = internal constant [2 x i8] c"r\00"
@str35 = internal constant [39 x i8] c".wsg only allowed for int32_t weights\0A\00"
@str34 = internal constant [39 x i8] c".wsg only allowed for weighted graphs\0A\00"
@str33 = internal constant [36 x i8] c".sg not allowed for weighted graph\0A\00"
@str32 = internal constant [42 x i8] c"serialized graphs only allowed for 32bit\0A\00"
@str31 = internal constant [27 x i8] c"Could't find suffix of %s\0A\00"
@str30 = internal constant [21 x i8] c" -%c %-9s: %-54s%10s\00"
@str29 = internal constant [5 x i8] c"[%s]\00"
@str28 = internal constant [5 x i8] c"<%s>\00"
@str27 = internal constant [30 x i8] c"verify the output of each run\00"
@str26 = internal constant [5 x i8] c"rand\00"
@str25 = internal constant [18 x i8] c"start from node r\00"
@str24 = internal constant [5 x i8] c"node\00"
@str23 = internal constant [17 x i8] c"perform n trials\00"
@str22 = internal constant [2 x i8] c"n\00"
@str21 = internal constant [6 x i8] c"false\00"
@str20 = internal constant [28 x i8] c"output analysis of last run\00"
@str19 = internal constant [7 x i8] c"an:r:v\00"
@str18 = internal constant [29 x i8] c"SSSP Tree reaches %ld nodes\0A\00"
@str17 = internal constant [13 x i8] c"Average Time\00"
@str16 = internal constant [18 x i8] c"Verification Time\00"
@str15 = internal constant [5 x i8] c"FAIL\00"
@str14 = internal constant [5 x i8] c"PASS\00"
@str13 = internal constant [13 x i8] c"Verification\00"
@str12 = internal constant [11 x i8] c"Trial Time\00"
@str11 = internal constant [5 x i8] c".wsg\00"
@str10 = internal constant [4 x i8] c".sg\00"
@str9 = internal constant [57 x i8] c"In-place building (-m) does not support weighted graphs\0A\00"
@str8 = internal constant [44 x i8] c"No graph input specified. (Use -h for help)\00"
@str7 = internal constant [1 x i8] zeroinitializer
@optarg = external global i8*
@str6 = internal constant [13 x i8] c"opt %c - %s\0A\00"
@str5 = internal constant [16 x i8] c"delta parameter\00"
@str4 = internal constant [2 x i8] c"d\00"
@str3 = internal constant [3 x i8] c"%d\00"
@str2 = internal constant [3 x i8] c"d:\00"
@str1 = internal constant [25 x i8] c"num_trials %d, delta %d\0A\00"
@str0 = internal constant [28 x i8] c"single-source shortest-path\00"

; Function Attrs: inaccessiblememonly mustprogress nofree nounwind willreturn
declare noalias noundef i8* @malloc(i64) #0

declare void @free(i8*) #1

declare void @_ZSt24__throw_out_of_range_fmtPKcz(i8*, ...) #1

declare i32 @__isoc99_fscanf(%struct._IO_FILE*, i8*, ...) #1

declare i32 @atoi(i8*) #1

declare i8* @strcpy(i8*, i8*) #1

declare i32 @fclose(%struct._IO_FILE*) #1

declare i64 @fread(i8*, i64, i64, %struct._IO_FILE*) #1

declare %struct._IO_FILE* @fopen(i8*, i8*) #1

declare i32 @snprintf(i8*, i64, i8*, ...) #1

declare i32 @strcmp(i8*, i8*) #1

declare i32 @sprintf(i8*, i8*, ...) #1

declare i32 @printf(i8*, ...) #1

define i32 @main(i32 %0, i8** %1) #1 !dbg !3 {
  %3 = alloca %class.anon.0, i64 1, align 8
  %4 = alloca %class.anon, i64 1, align 8
  %5 = alloca %class.anon.0, i64 1, align 8, !dbg !7
  %6 = alloca %class.anon.0, i64 1, align 8
  %7 = alloca %class.anon.0, i64 1, align 8
  %8 = alloca %class.anon.0, i64 1, align 8
  %9 = alloca %class.SourcePicker, i64 1, align 8, !dbg !9
  %10 = alloca %class.anon, i64 1, align 8, !dbg !10
  %11 = alloca %class.anon, i64 1, align 8
  %12 = alloca %class.anon, i64 1, align 8
  %13 = alloca %class.anon, i64 1, align 8
  %14 = alloca %class.SourcePicker, i64 1, align 8, !dbg !11
  %15 = alloca %class.CSRGraph, i64 1, align 8, !dbg !12
  %16 = alloca %class.CSRGraph, i64 1, align 8
  %17 = alloca %class.CSRGraph, i64 1, align 8
  %18 = alloca %class.BuilderBase, i64 1, align 8, !dbg !13
  %19 = alloca %class.CLDelta, i64 1, align 8, !dbg !14
  call void @_ZN7CLDeltaIiEC1EiPPcPKc(%class.CLDelta* %19, i32 %0, i8** %1, i8* getelementptr inbounds ([28 x i8], [28 x i8]* @str0, i32 0, i32 0)), !dbg !15
  %20 = call i8 @_ZN7CLDeltaIiE9ParseArgsEv(%class.CLDelta* %19), !dbg !16
  %21 = icmp eq i8 %20, 0, !dbg !17
  %22 = icmp ne i8 %20, 0, !dbg !17
  %23 = select i1 %21, i32 -1, i32 undef, !dbg !18
  %24 = select i1 %22, i32 0, i32 %23
  br i1 %22, label %25, label %52

25:                                               ; preds = %2
  %26 = getelementptr %class.CLDelta, %class.CLDelta* %19, i32 0, i32 0, !dbg !19
  %27 = bitcast %class.CLApp.base* %26 to %class.CLApp*, !dbg !19
  %28 = call i32 @_ZNK5CLApp10num_trialsEv(%class.CLApp* %27), !dbg !20
  %29 = call i32 @_ZNK7CLDeltaIiE5deltaEv(%class.CLDelta* %19), !dbg !21
  %30 = call i32 (i8*, ...) @printf(i8* getelementptr inbounds ([25 x i8], [25 x i8]* @str1, i32 0, i32 0), i32 %28, i32 %29), !dbg !22
  %31 = getelementptr %class.CLApp, %class.CLApp* %27, i32 0, i32 0, !dbg !23
  %32 = bitcast %class.CLBase.base* %31 to %class.CLBase*, !dbg !23
  %33 = icmp ne %class.CLBase* %32, null, !dbg !23
  %34 = select i1 %33, %class.CLBase* %32, %class.CLBase* null, !dbg !23
  call void @_ZN11BuilderBaseIi10NodeWeightIiiEiLb1EEC1ERK6CLBase(%class.BuilderBase* %18, %class.CLBase* %34), !dbg !24
  %35 = call %class.CSRGraph @_ZN11BuilderBaseIi10NodeWeightIiiEiLb1EE9MakeGraphEv(%class.BuilderBase* %18), !dbg !25
  store %class.CSRGraph %35, %class.CSRGraph* %16, align 8, !dbg !26
  call void @_ZN8CSRGraphIi10NodeWeightIiiELb1EEC1EOS2_(%class.CSRGraph* %17, %class.CSRGraph* %16), !dbg !26
  %36 = load %class.CSRGraph, %class.CSRGraph* %17, align 8, !dbg !12
  store %class.CSRGraph %36, %class.CSRGraph* %15, align 8, !dbg !12
  %37 = call i64 @_ZNK5CLApp12start_vertexEv(%class.CLApp* %27), !dbg !27
  %38 = trunc i64 %37 to i32, !dbg !28
  call void @_ZN12SourcePickerI8CSRGraphIi10NodeWeightIiiELb1EEEC1ERKS3_i(%class.SourcePicker* %14, %class.CSRGraph* %15, i32 %38), !dbg !29
  %39 = getelementptr %class.anon, %class.anon* %12, i32 0, i32 0, !dbg !30
  store %class.SourcePicker* %14, %class.SourcePicker** %39, align 8, !dbg !30
  %40 = getelementptr %class.anon, %class.anon* %12, i32 0, i32 1, !dbg !30
  store %class.CLDelta* %19, %class.CLDelta** %40, align 8, !dbg !30
  %41 = load %class.anon, %class.anon* %12, align 8, !dbg !30
  store %class.anon %41, %class.anon* %11, align 8, !dbg !30
  call void @"_ZZ4mainEN3$_0C1EOS_"(%class.anon* %13, %class.anon* %11), !dbg !30
  %42 = load %class.anon, %class.anon* %13, align 8, !dbg !10
  store %class.anon %42, %class.anon* %10, align 8, !dbg !10
  %43 = call i64 @_ZNK5CLApp12start_vertexEv(%class.CLApp* %27), !dbg !31
  %44 = trunc i64 %43 to i32, !dbg !32
  call void @_ZN12SourcePickerI8CSRGraphIi10NodeWeightIiiELb1EEEC1ERKS3_i(%class.SourcePicker* %9, %class.CSRGraph* %15, i32 %44), !dbg !33
  %45 = getelementptr %class.anon.0, %class.anon.0* %7, i32 0, i32 0, !dbg !34
  store %class.SourcePicker* %9, %class.SourcePicker** %45, align 8, !dbg !34
  %46 = load %class.anon.0, %class.anon.0* %7, align 8, !dbg !34
  store %class.anon.0 %46, %class.anon.0* %6, align 8, !dbg !34
  call void @"_ZZ4mainEN3$_1C1EOS_"(%class.anon.0* %8, %class.anon.0* %6), !dbg !34
  %47 = load %class.anon.0, %class.anon.0* %8, align 8, !dbg !7
  store %class.anon.0 %47, %class.anon.0* %5, align 8, !dbg !7
  %48 = icmp ne %class.CLApp* %27, null, !dbg !35
  %49 = select i1 %48, %class.CLApp* %27, %class.CLApp* null, !dbg !35
  call void @"_ZZ4mainEN3$_0C1ERKS_"(%class.anon* %4, %class.anon* %10), !dbg !36
  call void @"_ZZ4mainEN3$_1C1ERKS_"(%class.anon.0* %3, %class.anon.0* %5), !dbg !37
  %50 = load %class.anon, %class.anon* %4, align 8, !dbg !38
  %51 = load %class.anon.0, %class.anon.0* %3, align 8, !dbg !38
  call void @"_Z15BenchmarkKernelI8CSRGraphIi10NodeWeightIiiELb1EEZ4mainE3$_0PFvRKS3_RK7pvectorIiEEZ4mainE3$_1EvRK5CLAppRKT_T0_T1_T2_"(%class.CLApp* %49, %class.CSRGraph* %15, %class.anon %50, void (%class.CSRGraph*, %class.pvector*)* @_Z14PrintSSSPStatsRK8CSRGraphIi10NodeWeightIiiELb1EERK7pvectorIiE, %class.anon.0 %51), !dbg !38
  br label %52

52:                                               ; preds = %25, %2
  ret i32 %24, !dbg !39
}

define linkonce_odr void @_ZN7CLDeltaIiEC1EiPPcPKc(%class.CLDelta* %0, i32 %1, i8** %2, i8* %3) #1 !dbg !40 {
  %5 = alloca [64 x i8], i64 1, align 1, !dbg !42
  %6 = getelementptr %class.CLDelta, %class.CLDelta* %0, i32 0, i32 0, !dbg !44
  %7 = bitcast %class.CLApp.base* %6 to %class.CLApp*, !dbg !44
  call void @_ZN5CLAppC1EiPPcPKc(%class.CLApp* %7, i32 %1, i8** %2, i8* %3), !dbg !45
  %8 = getelementptr %class.CLDelta, %class.CLDelta* %0, i32 0, i32 1, !dbg !44
  store i32 1, i32* %8, align 4, !dbg !44
  %9 = load i32, i32* %8, align 4, !dbg !44
  store i32 %9, i32* %8, align 4, !dbg !44
  %10 = getelementptr %class.CLApp, %class.CLApp* %7, i32 0, i32 0, !dbg !46
  %11 = bitcast %class.CLBase.base* %10 to %class.CLBase*, !dbg !46
  %12 = getelementptr %class.CLBase, %class.CLBase* %11, i32 0, i32 4, !dbg !46
  %13 = getelementptr [128 x i8], [128 x i8]* %12, i32 0, i32 0, !dbg !46
  %14 = call i8* @strcat(i8* %13, i8* getelementptr inbounds ([3 x i8], [3 x i8]* @str2, i32 0, i32 0)), !dbg !47
  %15 = getelementptr [64 x i8], [64 x i8]* %5, i32 0, i32 0, !dbg !48
  %16 = load i32, i32* %8, align 4, !dbg !49
  %17 = call i32 (i8*, i8*, ...) @sprintf(i8* %15, i8* getelementptr inbounds ([3 x i8], [3 x i8]* @str3, i32 0, i32 0), i32 %16), !dbg !50
  call void @_ZN6CLBase11AddHelpLineEcPKcS1_S1_(%class.CLBase* %11, i8 100, i8* getelementptr inbounds ([2 x i8], [2 x i8]* @str4, i32 0, i32 0), i8* getelementptr inbounds ([16 x i8], [16 x i8]* @str5, i32 0, i32 0), i8* %15), !dbg !51
  ret void, !dbg !52
}

define linkonce_odr i8 @_ZN7CLDeltaIiE9ParseArgsEv(%class.CLDelta* %0) #1 !dbg !53 {
  %2 = getelementptr %class.CLDelta, %class.CLDelta* %0, i32 0, i32 0, !dbg !54
  %3 = bitcast %class.CLApp.base* %2 to %class.CLApp*, !dbg !54
  %4 = getelementptr %class.CLApp, %class.CLApp* %3, i32 0, i32 0, !dbg !54
  %5 = bitcast %class.CLBase.base* %4 to %class.CLBase*, !dbg !54
  %6 = getelementptr %class.CLBase, %class.CLBase* %5, i32 0, i32 0, !dbg !54
  %7 = getelementptr %class.CLBase, %class.CLBase* %5, i32 0, i32 2, !dbg !56
  %8 = getelementptr %class.CLBase, %class.CLBase* %5, i32 0, i32 4, !dbg !57
  %9 = getelementptr [128 x i8], [128 x i8]* %8, i32 0, i32 0, !dbg !57
  br label %10, !dbg !54

10:                                               ; preds = %17, %1
  %11 = load i32, i32* %6, align 4, !dbg !54
  %12 = load i8**, i8*** %7, align 8, !dbg !56
  %13 = call i32 @getopt(i32 %11, i8** %12, i8* %9), !dbg !58
  %14 = trunc i32 %13 to i8, !dbg !58
  %15 = sext i8 %14 to i32, !dbg !59
  %16 = icmp ne i32 %15, -1, !dbg !60
  br i1 %16, label %17, label %24, !dbg !61

17:                                               ; preds = %10
  %18 = phi i32 [ %13, %10 ]
  %19 = trunc i32 %18 to i8, !dbg !58
  %20 = sext i8 %19 to i32, !dbg !59
  %21 = load i8*, i8** @optarg, align 8, !dbg !62
  %22 = call i32 (i8*, ...) @printf(i8* getelementptr inbounds ([13 x i8], [13 x i8]* @str6, i32 0, i32 0), i32 %20, i8* %21), !dbg !63
  %23 = load i8*, i8** @optarg, align 8, !dbg !64
  call void @_ZN7CLDeltaIiE9HandleArgEaPc(%class.CLDelta* %0, i8 %19, i8* %23), !dbg !65
  br label %10, !dbg !61

24:                                               ; preds = %10
  %25 = getelementptr %class.CLBase, %class.CLBase* %5, i32 0, i32 8, !dbg !66
  %26 = getelementptr [128 x i8], [128 x i8]* %25, i32 0, i32 0, !dbg !66
  %27 = call i32 @strcmp(i8* %26, i8* getelementptr inbounds ([1 x i8], [1 x i8]* @str7, i32 0, i32 0)), !dbg !67
  %28 = icmp ne i32 %27, 0, !dbg !67
  br i1 %28, label %29, label %32, !dbg !68

29:                                               ; preds = %38, %32, %24
  %30 = phi i1 [ %36, %38 ], [ %36, %32 ], [ true, %24 ]
  %31 = phi i8 [ %37, %38 ], [ %37, %32 ], [ undef, %24 ]
  br label %40, !dbg !68

32:                                               ; preds = %24
  %33 = getelementptr %class.CLBase, %class.CLBase* %5, i32 0, i32 6, !dbg !69
  %34 = load i32, i32* %33, align 4, !dbg !69
  %35 = icmp eq i32 %34, -1, !dbg !70
  %36 = icmp ne i32 %34, -1, !dbg !71
  %37 = select i1 %35, i8 0, i8 undef, !dbg !72
  br i1 %35, label %38, label %29, !dbg !72

38:                                               ; preds = %32
  %39 = call i32 (i8*, ...) @printf(i8* getelementptr inbounds ([44 x i8], [44 x i8]* @str8, i32 0, i32 0)), !dbg !73
  br label %29, !dbg !72

40:                                               ; preds = %29
  %41 = phi i1 [ %30, %29 ]
  %42 = phi i8 [ %31, %29 ]
  br label %43, !dbg !68

43:                                               ; preds = %40
  %44 = select i1 %41, i8 1, i8 %42
  br i1 %41, label %45, label %52

45:                                               ; preds = %43
  %46 = getelementptr %class.CLBase, %class.CLBase* %5, i32 0, i32 6, !dbg !74
  %47 = load i32, i32* %46, align 4, !dbg !74
  %48 = icmp ne i32 %47, -1, !dbg !75
  br i1 %48, label %49, label %51, !dbg !76

49:                                               ; preds = %45
  %50 = getelementptr %class.CLBase, %class.CLBase* %5, i32 0, i32 9, !dbg !77
  store i8 1, i8* %50, align 1, !dbg !78
  br label %51, !dbg !76

51:                                               ; preds = %49, %45
  br label %52

52:                                               ; preds = %51, %43
  ret i8 %44, !dbg !79
}

define linkonce_odr i32 @_ZNK5CLApp10num_trialsEv(%class.CLApp* %0) #1 !dbg !80 {
  %2 = getelementptr %class.CLApp, %class.CLApp* %0, i32 0, i32 2, !dbg !81
  %3 = load i32, i32* %2, align 4, !dbg !81
  ret i32 %3, !dbg !83
}

define linkonce_odr i32 @_ZNK7CLDeltaIiE5deltaEv(%class.CLDelta* %0) #1 !dbg !84 {
  %2 = getelementptr %class.CLDelta, %class.CLDelta* %0, i32 0, i32 1, !dbg !85
  %3 = load i32, i32* %2, align 4, !dbg !85
  ret i32 %3, !dbg !87
}

define linkonce_odr void @_ZN11BuilderBaseIi10NodeWeightIiiEiLb1EEC1ERK6CLBase(%class.BuilderBase* %0, %class.CLBase* %1) #1 !dbg !88 {
  %3 = getelementptr %class.BuilderBase, %class.BuilderBase* %0, i32 0, i32 0, !dbg !90
  store %class.CLBase* %1, %class.CLBase** %3, align 8, !dbg !90
  %4 = getelementptr %class.BuilderBase, %class.BuilderBase* %0, i32 0, i32 3, !dbg !92
  store i8 0, i8* %4, align 1, !dbg !92
  %5 = load i8, i8* %4, align 1, !dbg !90
  store i8 %5, i8* %4, align 1, !dbg !90
  %6 = getelementptr %class.BuilderBase, %class.BuilderBase* %0, i32 0, i32 5, !dbg !92
  store i64 -1, i64* %6, align 8, !dbg !92
  %7 = load i64, i64* %6, align 8, !dbg !90
  store i64 %7, i64* %6, align 8, !dbg !90
  %8 = getelementptr %class.BuilderBase, %class.BuilderBase* %0, i32 0, i32 1, !dbg !93
  %9 = load %class.CLBase*, %class.CLBase** %3, align 8, !dbg !94
  %10 = call i8 @_ZNK6CLBase10symmetrizeEv(%class.CLBase* %9), !dbg !95
  store i8 %10, i8* %8, align 1, !dbg !96
  %11 = getelementptr %class.BuilderBase, %class.BuilderBase* %0, i32 0, i32 2, !dbg !97
  store i8 1, i8* %11, align 1, !dbg !98
  %12 = load %class.CLBase*, %class.CLBase** %3, align 8, !dbg !99
  %13 = call i8 @_ZNK6CLBase8in_placeEv(%class.CLBase* %12), !dbg !100
  store i8 %13, i8* %4, align 1, !dbg !101
  %14 = load i8, i8* %4, align 1, !dbg !102
  %15 = icmp ne i8 %14, 0, !dbg !103
  br i1 %15, label %16, label %22, !dbg !103

16:                                               ; preds = %2
  %17 = load i8, i8* %11, align 1, !dbg !104
  %18 = icmp ne i8 %17, 0, !dbg !103
  br i1 %18, label %19, label %21, !dbg !105

19:                                               ; preds = %16
  %20 = call i32 (i8*, ...) @printf(i8* getelementptr inbounds ([57 x i8], [57 x i8]* @str9, i32 0, i32 0)), !dbg !106
  call void @exit(i32 -30), !dbg !107
  br label %21, !dbg !105

21:                                               ; preds = %19, %16
  br label %22, !dbg !103

22:                                               ; preds = %21, %2
  ret void, !dbg !108
}

define linkonce_odr void @_ZN8CSRGraphIi10NodeWeightIiiELb1EEC1EOS2_(%class.CSRGraph* %0, %class.CSRGraph* %1) #1 !dbg !109 {
  %3 = getelementptr %class.CSRGraph, %class.CSRGraph* %1, i32 0, i32 0, !dbg !111
  %4 = load i8, i8* %3, align 1, !dbg !113
  %5 = getelementptr %class.CSRGraph, %class.CSRGraph* %0, i32 0, i32 0, !dbg !114
  store i8 %4, i8* %5, align 1, !dbg !114
  %6 = getelementptr %class.CSRGraph, %class.CSRGraph* %1, i32 0, i32 2, !dbg !115
  %7 = load i64, i64* %6, align 8, !dbg !116
  %8 = getelementptr %class.CSRGraph, %class.CSRGraph* %0, i32 0, i32 2, !dbg !114
  store i64 %7, i64* %8, align 8, !dbg !114
  %9 = getelementptr %class.CSRGraph, %class.CSRGraph* %1, i32 0, i32 3, !dbg !117
  %10 = load i64, i64* %9, align 8, !dbg !118
  %11 = getelementptr %class.CSRGraph, %class.CSRGraph* %0, i32 0, i32 3, !dbg !114
  store i64 %10, i64* %11, align 8, !dbg !114
  %12 = getelementptr %class.CSRGraph, %class.CSRGraph* %1, i32 0, i32 4, !dbg !119
  %13 = load %struct.NodeWeight**, %struct.NodeWeight*** %12, align 8, !dbg !120
  %14 = getelementptr %class.CSRGraph, %class.CSRGraph* %0, i32 0, i32 4, !dbg !114
  store %struct.NodeWeight** %13, %struct.NodeWeight*** %14, align 8, !dbg !114
  %15 = getelementptr %class.CSRGraph, %class.CSRGraph* %1, i32 0, i32 5, !dbg !121
  %16 = load %struct.NodeWeight*, %struct.NodeWeight** %15, align 8, !dbg !122
  %17 = getelementptr %class.CSRGraph, %class.CSRGraph* %0, i32 0, i32 5, !dbg !114
  store %struct.NodeWeight* %16, %struct.NodeWeight** %17, align 8, !dbg !114
  %18 = getelementptr %class.CSRGraph, %class.CSRGraph* %1, i32 0, i32 6, !dbg !123
  %19 = load %struct.NodeWeight**, %struct.NodeWeight*** %18, align 8, !dbg !124
  %20 = getelementptr %class.CSRGraph, %class.CSRGraph* %0, i32 0, i32 6, !dbg !114
  store %struct.NodeWeight** %19, %struct.NodeWeight*** %20, align 8, !dbg !114
  %21 = getelementptr %class.CSRGraph, %class.CSRGraph* %1, i32 0, i32 7, !dbg !125
  %22 = load %struct.NodeWeight*, %struct.NodeWeight** %21, align 8, !dbg !126
  %23 = getelementptr %class.CSRGraph, %class.CSRGraph* %0, i32 0, i32 7, !dbg !114
  store %struct.NodeWeight* %22, %struct.NodeWeight** %23, align 8, !dbg !114
  store i64 -1, i64* %9, align 8, !dbg !127
  store i64 -1, i64* %6, align 8, !dbg !128
  store %struct.NodeWeight** null, %struct.NodeWeight*** %12, align 8, !dbg !129
  store %struct.NodeWeight* null, %struct.NodeWeight** %15, align 8, !dbg !130
  store %struct.NodeWeight** null, %struct.NodeWeight*** %18, align 8, !dbg !131
  store %struct.NodeWeight* null, %struct.NodeWeight** %21, align 8, !dbg !132
  ret void, !dbg !133
}

define linkonce_odr %class.CSRGraph @_ZN11BuilderBaseIi10NodeWeightIiiEiLb1EE9MakeGraphEv(%class.BuilderBase* %0) #1 !dbg !134 {
  %2 = alloca %class.CSRGraph, i64 1, align 8
  %3 = alloca %class.CSRGraph, i64 1, align 8
  %4 = alloca %class.CSRGraph, i64 1, align 8
  %5 = alloca %class.CSRGraph, i64 1, align 8
  %6 = alloca %class.pvector.1, i64 1, align 8
  %7 = alloca %class.Generator, i64 1, align 8, !dbg !135
  %8 = alloca %class.pvector.1, i64 1, align 8
  %9 = alloca %class.CSRGraph, i64 1, align 8
  %10 = alloca %class.CSRGraph, i64 1, align 8
  %11 = alloca %"class.std::__cxx11::basic_string", i64 1, align 8
  %12 = alloca %"class.std::__cxx11::basic_string", i64 1, align 8
  %13 = alloca %class.Reader, i64 1, align 8, !dbg !137
  %14 = alloca %"class.std::__cxx11::basic_string", i64 1, align 8
  %15 = alloca %"class.std::allocator.2", i64 1, align 8
  %16 = alloca %"class.std::allocator.2", i64 1, align 8
  %17 = alloca %"class.std::__cxx11::basic_string", i64 1, align 8
  %18 = alloca %"class.std::__cxx11::basic_string", i64 1, align 8
  %19 = alloca %class.Reader, i64 1, align 8
  %20 = alloca %class.pvector.1, i64 1, align 8, !dbg !138
  %21 = alloca %class.CSRGraph, i64 1, align 8, !dbg !139
  %22 = alloca %class.CSRGraph, i64 ptrtoint (%class.CSRGraph* getelementptr (%class.CSRGraph, %class.CSRGraph* null, i32 1) to i64), align 8, !dbg !140
  call void @_ZN8CSRGraphIi10NodeWeightIiiELb1EEC1Ev(%class.CSRGraph* %21), !dbg !141
  call void @_ZN7pvectorI8EdgePairIi10NodeWeightIiiEEEC1Ev(%class.pvector.1* %20), !dbg !142
  %23 = getelementptr %class.BuilderBase, %class.BuilderBase* %0, i32 0, i32 0, !dbg !143
  %24 = load %class.CLBase*, %class.CLBase** %23, align 8, !dbg !143
  %25 = call i8* @_ZNK6CLBase8filenameEv(%class.CLBase* %24), !dbg !144
  %26 = call i32 @strcmp(i8* %25, i8* getelementptr inbounds ([1 x i8], [1 x i8]* @str7, i32 0, i32 0)), !dbg !145
  %27 = icmp ne i32 %26, 0, !dbg !145
  br i1 %27, label %28, label %56, !dbg !146

28:                                               ; preds = %1
  %29 = load %class.CLBase*, %class.CLBase** %23, align 8, !dbg !147
  %30 = call i8* @_ZNK6CLBase8filenameEv(%class.CLBase* %29), !dbg !148
  %31 = load %"class.std::allocator.2", %"class.std::allocator.2"* %16, align 1, !dbg !149
  store %"class.std::allocator.2" %31, %"class.std::allocator.2"* %15, align 1, !dbg !149
  call void @_ZNSt7__cxx1112basic_stringIcSt11char_traitsIcESaIcEEC1EPKcRKS3_(%"class.std::__cxx11::basic_string"* %17, i8* %30, %"class.std::allocator.2"* %15), !dbg !147
  %32 = load %"class.std::__cxx11::basic_string", %"class.std::__cxx11::basic_string"* %17, align 8, !dbg !147
  store %"class.std::__cxx11::basic_string" %32, %"class.std::__cxx11::basic_string"* %14, align 8, !dbg !147
  call void @_ZNSt7__cxx1112basic_stringIcSt11char_traitsIcESaIcEEC1EOS4_(%"class.std::__cxx11::basic_string"* %18, %"class.std::__cxx11::basic_string"* %14), !dbg !147
  %33 = load %"class.std::__cxx11::basic_string", %"class.std::__cxx11::basic_string"* %18, align 8, !dbg !152
  call void @_ZN6ReaderIi10NodeWeightIiiEiLb1EEC1ENSt7__cxx1112basic_stringIcSt11char_traitsIcESaIcEEE(%class.Reader* %19, %"class.std::__cxx11::basic_string" %33), !dbg !152
  %34 = load %class.Reader, %class.Reader* %19, align 8, !dbg !137
  store %class.Reader %34, %class.Reader* %13, align 8, !dbg !137
  %35 = call %"class.std::__cxx11::basic_string" @_ZN6ReaderIi10NodeWeightIiiEiLb1EE9GetSuffixB5cxx11Ev(%class.Reader* %13), !dbg !153
  store %"class.std::__cxx11::basic_string" %35, %"class.std::__cxx11::basic_string"* %12, align 8, !dbg !154
  %36 = call i32 @_ZNKSt7__cxx1112basic_stringIcSt11char_traitsIcESaIcEE7compareEPKc(%"class.std::__cxx11::basic_string"* %12, i8* getelementptr inbounds ([4 x i8], [4 x i8]* @str10, i32 0, i32 0)), !dbg !155
  %37 = icmp eq i32 %36, 0, !dbg !157
  br i1 %37, label %38, label %39, !dbg !158

38:                                               ; preds = %28
  br label %43, !dbg !158

39:                                               ; preds = %28
  %40 = call %"class.std::__cxx11::basic_string" @_ZN6ReaderIi10NodeWeightIiiEiLb1EE9GetSuffixB5cxx11Ev(%class.Reader* %13), !dbg !159
  store %"class.std::__cxx11::basic_string" %40, %"class.std::__cxx11::basic_string"* %11, align 8, !dbg !160
  %41 = call i32 @_ZNKSt7__cxx1112basic_stringIcSt11char_traitsIcESaIcEE7compareEPKc(%"class.std::__cxx11::basic_string"* %11, i8* getelementptr inbounds ([5 x i8], [5 x i8]* @str11, i32 0, i32 0)), !dbg !155
  %42 = icmp eq i32 %41, 0, !dbg !157
  br label %43, !dbg !158

43:                                               ; preds = %38, %39
  %44 = phi i1 [ %42, %39 ], [ true, %38 ]
  br label %45, !dbg !158

45:                                               ; preds = %43
  %46 = xor i1 %44, true, !dbg !161
  br i1 %44, label %47, label %50, !dbg !161

47:                                               ; preds = %45
  %48 = call %class.CSRGraph @_ZN6ReaderIi10NodeWeightIiiEiLb1EE19ReadSerializedGraphEv(%class.Reader* %13), !dbg !162
  store %class.CSRGraph %48, %class.CSRGraph* %9, align 8, !dbg !163
  call void @_ZN8CSRGraphIi10NodeWeightIiiELb1EEC1EOS2_(%class.CSRGraph* %10, %class.CSRGraph* %9), !dbg !163
  %49 = load %class.CSRGraph, %class.CSRGraph* %10, align 8, !dbg !164
  store %class.CSRGraph %49, %class.CSRGraph* %22, align 8, !dbg !164
  br label %54, !dbg !161

50:                                               ; preds = %45
  %51 = getelementptr %class.BuilderBase, %class.BuilderBase* %0, i32 0, i32 2, !dbg !165
  %52 = call %class.pvector.1 @_ZN6ReaderIi10NodeWeightIiiEiLb1EE8ReadFileERb(%class.Reader* %13, i8* %51), !dbg !166
  store %class.pvector.1 %52, %class.pvector.1* %8, align 8, !dbg !167
  %53 = call %class.pvector.1* @_ZN7pvectorI8EdgePairIi10NodeWeightIiiEEEaSEOS4_(%class.pvector.1* %20, %class.pvector.1* %8), !dbg !168
  br label %54, !dbg !161

54:                                               ; preds = %47, %50, %60, %56
  %55 = phi i1 [ true, %60 ], [ true, %56 ], [ %46, %50 ], [ %46, %47 ]
  br label %69, !dbg !146

56:                                               ; preds = %1
  %57 = load %class.CLBase*, %class.CLBase** %23, align 8, !dbg !169
  %58 = call i32 @_ZNK6CLBase5scaleEv(%class.CLBase* %57), !dbg !170
  %59 = icmp ne i32 %58, -1, !dbg !171
  br i1 %59, label %60, label %54, !dbg !172

60:                                               ; preds = %56
  %61 = load %class.CLBase*, %class.CLBase** %23, align 8, !dbg !173
  %62 = call i32 @_ZNK6CLBase5scaleEv(%class.CLBase* %61), !dbg !174
  %63 = load %class.CLBase*, %class.CLBase** %23, align 8, !dbg !175
  %64 = call i32 @_ZNK6CLBase6degreeEv(%class.CLBase* %63), !dbg !176
  call void @_ZN9GeneratorIi10NodeWeightIiiEiEC1Eii(%class.Generator* %7, i32 %62, i32 %64), !dbg !177
  %65 = load %class.CLBase*, %class.CLBase** %23, align 8, !dbg !178
  %66 = call i8 @_ZNK6CLBase7uniformEv(%class.CLBase* %65), !dbg !179
  %67 = call %class.pvector.1 @_ZN9GeneratorIi10NodeWeightIiiEiE10GenerateELEb(%class.Generator* %7, i8 %66), !dbg !180
  store %class.pvector.1 %67, %class.pvector.1* %6, align 8, !dbg !181
  %68 = call %class.pvector.1* @_ZN7pvectorI8EdgePairIi10NodeWeightIiiEEEaSEOS4_(%class.pvector.1* %20, %class.pvector.1* %6), !dbg !182
  br label %54, !dbg !172

69:                                               ; preds = %54
  %70 = phi i1 [ %55, %54 ]
  br label %71, !dbg !146

71:                                               ; preds = %69
  br i1 %70, label %72, label %84

72:                                               ; preds = %71
  %73 = call %class.CSRGraph @_ZN11BuilderBaseIi10NodeWeightIiiEiLb1EE15MakeGraphFromELER7pvectorI8EdgePairIiS1_EE(%class.BuilderBase* %0, %class.pvector.1* %20), !dbg !183
  store %class.CSRGraph %73, %class.CSRGraph* %5, align 8, !dbg !183
  %74 = call %class.CSRGraph* @_ZN8CSRGraphIi10NodeWeightIiiELb1EEaSEOS2_(%class.CSRGraph* %21, %class.CSRGraph* %5), !dbg !184
  %75 = getelementptr %class.BuilderBase, %class.BuilderBase* %0, i32 0, i32 3, !dbg !185
  %76 = load i8, i8* %75, align 1, !dbg !185
  %77 = icmp ne i8 %76, 0, !dbg !186
  br i1 %77, label %78, label %80, !dbg !186

78:                                               ; preds = %72
  call void @_ZN8CSRGraphIi10NodeWeightIiiELb1EEC1EOS2_(%class.CSRGraph* %4, %class.CSRGraph* %21), !dbg !187
  %79 = load %class.CSRGraph, %class.CSRGraph* %4, align 8, !dbg !188
  store %class.CSRGraph %79, %class.CSRGraph* %22, align 8, !dbg !188
  br label %83, !dbg !186

80:                                               ; preds = %72
  %81 = call %class.CSRGraph @_ZN11BuilderBaseIi10NodeWeightIiiEiLb1EE11SquishGraphERK8CSRGraphIiS1_Lb1EE(%class.BuilderBase* %0, %class.CSRGraph* %21), !dbg !189
  store %class.CSRGraph %81, %class.CSRGraph* %2, align 8, !dbg !189
  call void @_ZN8CSRGraphIi10NodeWeightIiiELb1EEC1EOS2_(%class.CSRGraph* %3, %class.CSRGraph* %2), !dbg !189
  %82 = load %class.CSRGraph, %class.CSRGraph* %3, align 8, !dbg !190
  store %class.CSRGraph %82, %class.CSRGraph* %22, align 8, !dbg !190
  br label %83, !dbg !186

83:                                               ; preds = %78, %80
  br label %84

84:                                               ; preds = %83, %71
  %85 = load %class.CSRGraph, %class.CSRGraph* %22, align 8, !dbg !191
  ret %class.CSRGraph %85, !dbg !191
}

define linkonce_odr void @_ZN12SourcePickerI8CSRGraphIi10NodeWeightIiiELb1EEEC1ERKS3_i(%class.SourcePicker* %0, %class.CSRGraph* %1, i32 %2) #1 !dbg !192 {
  %4 = getelementptr %class.SourcePicker, %class.SourcePicker* %0, i32 0, i32 0, !dbg !194
  store i32 %2, i32* %4, align 4, !dbg !194
  %5 = getelementptr %class.SourcePicker, %class.SourcePicker* %0, i32 0, i32 2, !dbg !194
  call void @_ZNSt23mersenne_twister_engineImLm32ELm624ELm397ELm31ELm2567483615ELm11ELm4294967295ELm7ELm2636928640ELm15ELm4022730752ELm18ELm1812433253EE4seedEm(%"class.std::mersenne_twister_engine"* %5, i64 27491095), !dbg !196
  %6 = getelementptr %class.SourcePicker, %class.SourcePicker* %0, i32 0, i32 3, !dbg !194
  %7 = call i64 @_ZNK8CSRGraphIi10NodeWeightIiiELb1EE9num_nodesEv(%class.CSRGraph* %1), !dbg !200
  %8 = add i64 %7, -1, !dbg !201
  %9 = trunc i64 %8 to i32, !dbg !202
  call void @_ZNSt24uniform_int_distributionIiEC1Eii(%"class.std::uniform_int_distribution"* %6, i32 0, i32 %9), !dbg !203
  %10 = getelementptr %class.SourcePicker, %class.SourcePicker* %0, i32 0, i32 4, !dbg !194
  store %class.CSRGraph* %1, %class.CSRGraph** %10, align 8, !dbg !194
  ret void, !dbg !204
}

define linkonce_odr i64 @_ZNK5CLApp12start_vertexEv(%class.CLApp* %0) #1 !dbg !205 {
  %2 = getelementptr %class.CLApp, %class.CLApp* %0, i32 0, i32 3, !dbg !206
  %3 = load i64, i64* %2, align 8, !dbg !206
  ret i64 %3, !dbg !208
}

define internal void @"_ZZ4mainEN3$_0C1EOS_"(%class.anon* %0, %class.anon* %1) #1 !dbg !209 {
  %3 = getelementptr %class.anon, %class.anon* %1, i32 0, i32 0, !dbg !210
  %4 = load %class.SourcePicker*, %class.SourcePicker** %3, align 8, !dbg !210
  %5 = getelementptr %class.anon, %class.anon* %0, i32 0, i32 0, !dbg !210
  store %class.SourcePicker* %4, %class.SourcePicker** %5, align 8, !dbg !210
  %6 = getelementptr %class.anon, %class.anon* %1, i32 0, i32 1, !dbg !210
  %7 = load %class.CLDelta*, %class.CLDelta** %6, align 8, !dbg !210
  %8 = getelementptr %class.anon, %class.anon* %0, i32 0, i32 1, !dbg !210
  store %class.CLDelta* %7, %class.CLDelta** %8, align 8, !dbg !210
  ret void, !dbg !210
}

define internal void @"_ZZ4mainEN3$_1C1EOS_"(%class.anon.0* %0, %class.anon.0* %1) #1 !dbg !212 {
  %3 = getelementptr %class.anon.0, %class.anon.0* %1, i32 0, i32 0, !dbg !213
  %4 = load %class.SourcePicker*, %class.SourcePicker** %3, align 8, !dbg !213
  %5 = getelementptr %class.anon.0, %class.anon.0* %0, i32 0, i32 0, !dbg !213
  store %class.SourcePicker* %4, %class.SourcePicker** %5, align 8, !dbg !213
  ret void, !dbg !213
}

define internal void @"_Z15BenchmarkKernelI8CSRGraphIi10NodeWeightIiiELb1EEZ4mainE3$_0PFvRKS3_RK7pvectorIiEEZ4mainE3$_1EvRK5CLAppRKT_T0_T1_T2_"(%class.CLApp* %0, %class.CSRGraph* %1, %class.anon %2, void (%class.CSRGraph*, %class.pvector*)* %3, %class.anon.0 %4) #1 !dbg !215 {
  %6 = alloca %"class.std::reference_wrapper.5", i64 1, align 8
  %7 = alloca %"class.std::reference_wrapper", i64 1, align 8
  %8 = alloca %class.pvector, i64 1, align 8, !dbg !216
  %9 = alloca %class.pvector, i64 1, align 8
  %10 = alloca %class.pvector, i64 1, align 8
  %11 = alloca %class.Timer, i64 1, align 8, !dbg !218
  %12 = alloca %class.anon.0, i64 1, align 8, !dbg !219
  %13 = alloca %class.anon, i64 1, align 8, !dbg !220
  store %class.anon %2, %class.anon* %13, align 8, !dbg !220
  store %class.anon.0 %4, %class.anon.0* %12, align 8, !dbg !219
  call void @_ZNK8CSRGraphIi10NodeWeightIiiELb1EE10PrintStatsEv(%class.CSRGraph* %1), !dbg !221
  call void @_ZN5TimerC1Ev(%class.Timer* %11), !dbg !222
  br label %14, !dbg !223

14:                                               ; preds = %52, %5
  %15 = phi i32 [ %53, %52 ], [ 0, %5 ]
  %16 = phi double [ %26, %52 ], [ 0.000000e+00, %5 ]
  %17 = call i32 @_ZNK5CLApp10num_trialsEv(%class.CLApp* %0), !dbg !223
  %18 = icmp slt i32 %15, %17, !dbg !224
  br i1 %18, label %19, label %54, !dbg !225

19:                                               ; preds = %14
  %20 = phi double [ %16, %14 ]
  %21 = phi i32 [ %15, %14 ]
  call void @_ZN5Timer5StartEv(%class.Timer* %11), !dbg !226
  %22 = call %class.pvector @"_ZZ4mainENK3$_0clERK8CSRGraphIi10NodeWeightIiiELb1EE"(%class.anon* %13, %class.CSRGraph* %1), !dbg !227
  store %class.pvector %22, %class.pvector* %9, align 8, !dbg !227
  call void @_ZN7pvectorIiEC1EOS0_(%class.pvector* %10, %class.pvector* %9), !dbg !227
  %23 = load %class.pvector, %class.pvector* %10, align 8, !dbg !216
  store %class.pvector %23, %class.pvector* %8, align 8, !dbg !216
  call void @_ZN5Timer4StopEv(%class.Timer* %11), !dbg !228
  %24 = call double @_ZNK5Timer7SecondsEv(%class.Timer* %11), !dbg !229
  call void @_Z9PrintTimePKcd(i8* getelementptr inbounds ([11 x i8], [11 x i8]* @str12, i32 0, i32 0), double %24), !dbg !230
  %25 = call double @_ZNK5Timer7SecondsEv(%class.Timer* %11), !dbg !231
  %26 = fadd double %20, %25, !dbg !232
  %27 = call i8 @_ZNK5CLApp11do_analysisEv(%class.CLApp* %0), !dbg !233
  %28 = icmp ne i8 %27, 0, !dbg !234
  br i1 %28, label %29, label %35, !dbg !234

29:                                               ; preds = %19
  %30 = call i32 @_ZNK5CLApp10num_trialsEv(%class.CLApp* %0), !dbg !235
  %31 = add i32 %30, -1, !dbg !236
  %32 = icmp eq i32 %21, %31, !dbg !237
  br i1 %32, label %33, label %34, !dbg !238

33:                                               ; preds = %29
  call void %3(%class.CSRGraph* %1, %class.pvector* %8), !dbg !239
  br label %34, !dbg !238

34:                                               ; preds = %33, %29
  br label %35, !dbg !234

35:                                               ; preds = %34, %19
  %36 = call i8 @_ZNK5CLApp9do_verifyEv(%class.CLApp* %0), !dbg !240
  %37 = icmp ne i8 %36, 0, !dbg !241
  br i1 %37, label %38, label %52, !dbg !241

38:                                               ; preds = %35
  call void @_ZN5Timer5StartEv(%class.Timer* %11), !dbg !242
  %39 = call %"class.std::reference_wrapper" @_ZSt3refIK8CSRGraphIi10NodeWeightIiiELb1EEESt17reference_wrapperIT_ERS6_(%class.CSRGraph* %1), !dbg !243
  store %"class.std::reference_wrapper" %39, %"class.std::reference_wrapper"* %7, align 8, !dbg !243
  %40 = call %class.CSRGraph* @_ZNKSt17reference_wrapperIK8CSRGraphIi10NodeWeightIiiELb1EEE3getEv(%"class.std::reference_wrapper"* %7), !dbg !244
  %41 = call %"class.std::reference_wrapper.5" @_ZSt3refI7pvectorIiEESt17reference_wrapperIT_ERS3_(%class.pvector* %8), !dbg !247
  store %"class.std::reference_wrapper.5" %41, %"class.std::reference_wrapper.5"* %6, align 8, !dbg !247
  %42 = call %class.pvector* @_ZNKSt17reference_wrapperI7pvectorIiEE3getEv(%"class.std::reference_wrapper.5"* %6), !dbg !244
  %43 = call i8 @"_ZZ4mainENK3$_1clERK8CSRGraphIi10NodeWeightIiiELb1EERK7pvectorIiE"(%class.anon.0* %12, %class.CSRGraph* %40, %class.pvector* %42), !dbg !248
  %44 = icmp ne i8 %43, 0, !dbg !248
  br i1 %44, label %45, label %46, !dbg !248

45:                                               ; preds = %38
  br label %47, !dbg !248

46:                                               ; preds = %38
  br label %47, !dbg !248

47:                                               ; preds = %45, %46
  %48 = phi [5 x i8]* [ @str15, %46 ], [ @str14, %45 ]
  br label %49, !dbg !248

49:                                               ; preds = %47
  %50 = getelementptr [5 x i8], [5 x i8]* %48, i32 0, i32 0, !dbg !248
  call void @_Z10PrintLabelPKcS0_(i8* getelementptr inbounds ([13 x i8], [13 x i8]* @str13, i32 0, i32 0), i8* %50), !dbg !249
  call void @_ZN5Timer4StopEv(%class.Timer* %11), !dbg !250
  %51 = call double @_ZNK5Timer7SecondsEv(%class.Timer* %11), !dbg !251
  call void @_Z9PrintTimePKcd(i8* getelementptr inbounds ([18 x i8], [18 x i8]* @str16, i32 0, i32 0), double %51), !dbg !252
  br label %52, !dbg !241

52:                                               ; preds = %49, %35
  %53 = add i32 %21, 1, !dbg !253
  br label %14, !dbg !225

54:                                               ; preds = %14
  %55 = call i32 @_ZNK5CLApp10num_trialsEv(%class.CLApp* %0), !dbg !254
  %56 = sitofp i32 %55 to double, !dbg !255
  %57 = fdiv double %16, %56, !dbg !256
  call void @_Z9PrintTimePKcd(i8* getelementptr inbounds ([13 x i8], [13 x i8]* @str17, i32 0, i32 0), double %57), !dbg !257
  ret void, !dbg !258
}

define internal void @"_ZZ4mainEN3$_0C1ERKS_"(%class.anon* %0, %class.anon* %1) #1 !dbg !259 {
  %3 = getelementptr %class.anon, %class.anon* %1, i32 0, i32 0, !dbg !260
  %4 = load %class.SourcePicker*, %class.SourcePicker** %3, align 8, !dbg !260
  %5 = getelementptr %class.anon, %class.anon* %0, i32 0, i32 0, !dbg !260
  store %class.SourcePicker* %4, %class.SourcePicker** %5, align 8, !dbg !260
  %6 = getelementptr %class.anon, %class.anon* %1, i32 0, i32 1, !dbg !260
  %7 = load %class.CLDelta*, %class.CLDelta** %6, align 8, !dbg !260
  %8 = getelementptr %class.anon, %class.anon* %0, i32 0, i32 1, !dbg !260
  store %class.CLDelta* %7, %class.CLDelta** %8, align 8, !dbg !260
  ret void, !dbg !260
}

define void @_Z14PrintSSSPStatsRK8CSRGraphIi10NodeWeightIiiELb1EERK7pvectorIiE(%class.CSRGraph* %0, %class.pvector* %1) #1 !dbg !262 {
  %3 = alloca %class.anon.14, i64 1, align 8
  %4 = call i32* @_ZNK7pvectorIiE5beginEv(%class.pvector* %1), !dbg !263
  %5 = call i32* @_ZNK7pvectorIiE3endEv(%class.pvector* %1), !dbg !265
  %6 = load %class.anon.14, %class.anon.14* %3, align 1, !dbg !266
  %7 = call i64 @"_ZSt8count_ifIPiZ14PrintSSSPStatsRK8CSRGraphIi10NodeWeightIiiELb1EERK7pvectorIiEE3$_0ENSt15iterator_traitsIT_E15difference_typeESD_SD_T0_"(i32* %4, i32* %5, %class.anon.14 %6), !dbg !266
  %8 = call i32 (i8*, ...) @printf(i8* getelementptr inbounds ([29 x i8], [29 x i8]* @str18, i32 0, i32 0), i64 %7), !dbg !267
  ret void, !dbg !268
}

define internal void @"_ZZ4mainEN3$_1C1ERKS_"(%class.anon.0* %0, %class.anon.0* %1) #1 !dbg !269 {
  %3 = getelementptr %class.anon.0, %class.anon.0* %1, i32 0, i32 0, !dbg !270
  %4 = load %class.SourcePicker*, %class.SourcePicker** %3, align 8, !dbg !270
  %5 = getelementptr %class.anon.0, %class.anon.0* %0, i32 0, i32 0, !dbg !270
  store %class.SourcePicker* %4, %class.SourcePicker** %5, align 8, !dbg !270
  ret void, !dbg !270
}

define linkonce_odr void @_ZN5CLAppC1EiPPcPKc(%class.CLApp* %0, i32 %1, i8** %2, i8* %3) #1 !dbg !272 {
  %5 = alloca [16 x i8], i64 1, align 1, !dbg !273
  %6 = getelementptr %class.CLApp, %class.CLApp* %0, i32 0, i32 0, !dbg !275
  %7 = bitcast %class.CLBase.base* %6 to %class.CLBase*, !dbg !275
  call void @_ZN6CLBaseC1EiPPcPKc(%class.CLBase* %7, i32 %1, i8** %2, i8* %3), !dbg !276
  %8 = getelementptr %class.CLApp, %class.CLApp* %0, i32 0, i32 1, !dbg !275
  store i8 0, i8* %8, align 1, !dbg !275
  %9 = load i8, i8* %8, align 1, !dbg !275
  store i8 %9, i8* %8, align 1, !dbg !275
  %10 = getelementptr %class.CLApp, %class.CLApp* %0, i32 0, i32 2, !dbg !275
  store i32 16, i32* %10, align 4, !dbg !275
  %11 = load i32, i32* %10, align 4, !dbg !275
  store i32 %11, i32* %10, align 4, !dbg !275
  %12 = getelementptr %class.CLApp, %class.CLApp* %0, i32 0, i32 3, !dbg !275
  store i64 -1, i64* %12, align 8, !dbg !275
  %13 = load i64, i64* %12, align 8, !dbg !275
  store i64 %13, i64* %12, align 8, !dbg !275
  %14 = getelementptr %class.CLApp, %class.CLApp* %0, i32 0, i32 4, !dbg !275
  store i8 0, i8* %14, align 1, !dbg !275
  %15 = load i8, i8* %14, align 1, !dbg !275
  store i8 %15, i8* %14, align 1, !dbg !275
  %16 = getelementptr %class.CLBase, %class.CLBase* %7, i32 0, i32 4, !dbg !277
  %17 = getelementptr [128 x i8], [128 x i8]* %16, i32 0, i32 0, !dbg !277
  %18 = call i8* @strcat(i8* %17, i8* getelementptr inbounds ([7 x i8], [7 x i8]* @str19, i32 0, i32 0)), !dbg !278
  call void @_ZN6CLBase11AddHelpLineEcPKcS1_S1_(%class.CLBase* %7, i8 97, i8* getelementptr inbounds ([1 x i8], [1 x i8]* @str7, i32 0, i32 0), i8* getelementptr inbounds ([28 x i8], [28 x i8]* @str20, i32 0, i32 0), i8* getelementptr inbounds ([6 x i8], [6 x i8]* @str21, i32 0, i32 0)), !dbg !279
  %19 = getelementptr [16 x i8], [16 x i8]* %5, i32 0, i32 0, !dbg !280
  %20 = load i32, i32* %10, align 4, !dbg !281
  %21 = call i32 (i8*, i8*, ...) @sprintf(i8* %19, i8* getelementptr inbounds ([3 x i8], [3 x i8]* @str3, i32 0, i32 0), i32 %20), !dbg !282
  call void @_ZN6CLBase11AddHelpLineEcPKcS1_S1_(%class.CLBase* %7, i8 110, i8* getelementptr inbounds ([2 x i8], [2 x i8]* @str22, i32 0, i32 0), i8* getelementptr inbounds ([17 x i8], [17 x i8]* @str23, i32 0, i32 0), i8* %19), !dbg !283
  call void @_ZN6CLBase11AddHelpLineEcPKcS1_S1_(%class.CLBase* %7, i8 114, i8* getelementptr inbounds ([5 x i8], [5 x i8]* @str24, i32 0, i32 0), i8* getelementptr inbounds ([18 x i8], [18 x i8]* @str25, i32 0, i32 0), i8* getelementptr inbounds ([5 x i8], [5 x i8]* @str26, i32 0, i32 0)), !dbg !284
  call void @_ZN6CLBase11AddHelpLineEcPKcS1_S1_(%class.CLBase* %7, i8 118, i8* getelementptr inbounds ([1 x i8], [1 x i8]* @str7, i32 0, i32 0), i8* getelementptr inbounds ([30 x i8], [30 x i8]* @str27, i32 0, i32 0), i8* getelementptr inbounds ([6 x i8], [6 x i8]* @str21, i32 0, i32 0)), !dbg !285
  ret void, !dbg !286
}

declare i8* @strcat(i8*, i8*) #1

define linkonce_odr void @_ZN6CLBase11AddHelpLineEcPKcS1_S1_(%class.CLBase* %0, i8 %1, i8* %2, i8* %3, i8* %4) #1 !dbg !287 {
  %6 = alloca [64 x i8], i64 1, align 1, !dbg !288
  %7 = alloca [16 x i8], i64 1, align 1, !dbg !290
  %8 = alloca i8*, i64 1, align 8, !dbg !291
  %9 = call noalias noundef i8* @malloc(i64 100), !dbg !292
  store i8* %9, i8** %8, align 8, !dbg !291
  %10 = call i32 @strcmp(i8* %2, i8* getelementptr inbounds ([1 x i8], [1 x i8]* @str7, i32 0, i32 0)), !dbg !293
  %11 = icmp ne i32 %10, 0, !dbg !293
  br i1 %11, label %12, label %15, !dbg !294

12:                                               ; preds = %5
  %13 = getelementptr [16 x i8], [16 x i8]* %7, i32 0, i32 0, !dbg !295
  %14 = call i32 (i8*, i8*, ...) @sprintf(i8* %13, i8* getelementptr inbounds ([5 x i8], [5 x i8]* @str28, i32 0, i32 0), i8* %2), !dbg !296
  br label %15, !dbg !294

15:                                               ; preds = %12, %5
  %16 = call i32 @strcmp(i8* %4, i8* getelementptr inbounds ([1 x i8], [1 x i8]* @str7, i32 0, i32 0)), !dbg !297
  %17 = icmp ne i32 %16, 0, !dbg !297
  br i1 %17, label %18, label %21, !dbg !298

18:                                               ; preds = %15
  %19 = getelementptr [64 x i8], [64 x i8]* %6, i32 0, i32 0, !dbg !299
  %20 = call i32 (i8*, i8*, ...) @sprintf(i8* %19, i8* getelementptr inbounds ([5 x i8], [5 x i8]* @str29, i32 0, i32 0), i8* %4), !dbg !300
  br label %21, !dbg !298

21:                                               ; preds = %18, %15
  %22 = load i8*, i8** %8, align 8, !dbg !301
  %23 = sext i8 %1 to i32, !dbg !302
  %24 = getelementptr [16 x i8], [16 x i8]* %7, i32 0, i32 0, !dbg !303
  %25 = getelementptr [64 x i8], [64 x i8]* %6, i32 0, i32 0, !dbg !304
  %26 = call i32 (i8*, i64, i8*, ...) @snprintf(i8* %22, i64 100, i8* getelementptr inbounds ([21 x i8], [21 x i8]* @str30, i32 0, i32 0), i32 %23, i8* %24, i8* %3, i8* %25), !dbg !305
  %27 = getelementptr %class.CLBase, %class.CLBase* %0, i32 0, i32 5, !dbg !306
  call void @_ZNSt6vectorIPcSaIS0_EE9push_backERKS0_(%"class.std::vector"* %27, i8** %8), !dbg !307
  ret void, !dbg !308
}

declare i32 @getopt(i32, i8**, i8*) #1

define linkonce_odr void @_ZN7CLDeltaIiE9HandleArgEaPc(%class.CLDelta* %0, i8 %1, i8* %2) #1 !dbg !309 {
  %4 = sext i8 %1 to i32, !dbg !310
  switch i32 %4, label %9 [
    i32 100, label %5
  ], !dbg !312

5:                                                ; preds = %3
  %6 = getelementptr %class.CLDelta, %class.CLDelta* %0, i32 0, i32 1, !dbg !313
  %7 = call i64 @atol(i8* %2), !dbg !314
  %8 = trunc i64 %7 to i32, !dbg !314
  store i32 %8, i32* %6, align 4, !dbg !315
  br label %12, !dbg !316

9:                                                ; preds = %3
  %10 = getelementptr %class.CLDelta, %class.CLDelta* %0, i32 0, i32 0, !dbg !317
  %11 = bitcast %class.CLApp.base* %10 to %class.CLApp*, !dbg !317
  call void @_ZN5CLApp9HandleArgEaPc(%class.CLApp* %11, i8 %1, i8* %2), !dbg !317
  br label %12, !dbg !312

12:                                               ; preds = %9, %5
  ret void, !dbg !318
}

define linkonce_odr i8 @_ZNK6CLBase10symmetrizeEv(%class.CLBase* %0) #1 !dbg !319 {
  %2 = getelementptr %class.CLBase, %class.CLBase* %0, i32 0, i32 9, !dbg !320
  %3 = load i8, i8* %2, align 1, !dbg !320
  ret i8 %3, !dbg !322
}

define linkonce_odr i8 @_ZNK6CLBase8in_placeEv(%class.CLBase* %0) #1 !dbg !323 {
  %2 = getelementptr %class.CLBase, %class.CLBase* %0, i32 0, i32 11, !dbg !324
  %3 = load i8, i8* %2, align 1, !dbg !324
  ret i8 %3, !dbg !326
}

declare void @exit(i32) #1

define linkonce_odr void @_ZN8CSRGraphIi10NodeWeightIiiELb1EEC1Ev(%class.CSRGraph* %0) #1 !dbg !327 {
  %2 = getelementptr %class.CSRGraph, %class.CSRGraph* %0, i32 0, i32 0, !dbg !328
  store i8 0, i8* %2, align 1, !dbg !328
  %3 = getelementptr %class.CSRGraph, %class.CSRGraph* %0, i32 0, i32 2, !dbg !328
  store i64 -1, i64* %3, align 8, !dbg !328
  %4 = getelementptr %class.CSRGraph, %class.CSRGraph* %0, i32 0, i32 3, !dbg !328
  store i64 -1, i64* %4, align 8, !dbg !328
  %5 = getelementptr %class.CSRGraph, %class.CSRGraph* %0, i32 0, i32 4, !dbg !328
  store %struct.NodeWeight** null, %struct.NodeWeight*** %5, align 8, !dbg !328
  %6 = getelementptr %class.CSRGraph, %class.CSRGraph* %0, i32 0, i32 5, !dbg !328
  store %struct.NodeWeight* null, %struct.NodeWeight** %6, align 8, !dbg !328
  %7 = getelementptr %class.CSRGraph, %class.CSRGraph* %0, i32 0, i32 6, !dbg !328
  store %struct.NodeWeight** null, %struct.NodeWeight*** %7, align 8, !dbg !328
  %8 = getelementptr %class.CSRGraph, %class.CSRGraph* %0, i32 0, i32 7, !dbg !328
  store %struct.NodeWeight* null, %struct.NodeWeight** %8, align 8, !dbg !328
  ret void, !dbg !330
}

define linkonce_odr void @_ZN7pvectorI8EdgePairIi10NodeWeightIiiEEEC1Ev(%class.pvector.1* %0) #1 !dbg !331 {
  %2 = getelementptr %class.pvector.1, %class.pvector.1* %0, i32 0, i32 0, !dbg !333
  store %struct.EdgePair* null, %struct.EdgePair** %2, align 8, !dbg !333
  %3 = getelementptr %class.pvector.1, %class.pvector.1* %0, i32 0, i32 1, !dbg !333
  store %struct.EdgePair* null, %struct.EdgePair** %3, align 8, !dbg !333
  %4 = getelementptr %class.pvector.1, %class.pvector.1* %0, i32 0, i32 2, !dbg !333
  store %struct.EdgePair* null, %struct.EdgePair** %4, align 8, !dbg !333
  ret void, !dbg !335
}

define linkonce_odr i8* @_ZNK6CLBase8filenameEv(%class.CLBase* %0) #1 !dbg !336 {
  %2 = getelementptr %class.CLBase, %class.CLBase* %0, i32 0, i32 8, !dbg !337
  %3 = getelementptr [128 x i8], [128 x i8]* %2, i32 0, i32 0, !dbg !337
  ret i8* %3, !dbg !339
}

define linkonce_odr void @_ZN6ReaderIi10NodeWeightIiiEiLb1EEC1ENSt7__cxx1112basic_stringIcSt11char_traitsIcESaIcEEE(%class.Reader* %0, %"class.std::__cxx11::basic_string" %1) #1 !dbg !340 {
  %3 = alloca %"class.std::__cxx11::basic_string", i64 1, align 8, !dbg !342
  store %"class.std::__cxx11::basic_string" %1, %"class.std::__cxx11::basic_string"* %3, align 8, !dbg !342
  %4 = getelementptr %class.Reader, %class.Reader* %0, i32 0, i32 0, !dbg !344
  call void @_ZNSt7__cxx1112basic_stringIcSt11char_traitsIcESaIcEEC1ERKS4_(%"class.std::__cxx11::basic_string"* %4, %"class.std::__cxx11::basic_string"* %3), !dbg !345
  ret void, !dbg !346
}

define available_externally void @_ZNSt7__cxx1112basic_stringIcSt11char_traitsIcESaIcEEC1EOS4_(%"class.std::__cxx11::basic_string"* %0, %"class.std::__cxx11::basic_string"* %1) #1 !dbg !347 {
  %3 = getelementptr %"class.std::__cxx11::basic_string", %"class.std::__cxx11::basic_string"* %0, i32 0, i32 0, !dbg !348
  %4 = call i8* @_ZNSt7__cxx1112basic_stringIcSt11char_traitsIcESaIcEE13_M_local_dataEv(%"class.std::__cxx11::basic_string"* %0), !dbg !350
  %5 = call %"class.std::allocator.2"* @_ZNSt7__cxx1112basic_stringIcSt11char_traitsIcESaIcEE16_M_get_allocatorEv(%"class.std::__cxx11::basic_string"* %1), !dbg !351
  call void @_ZNSt7__cxx1112basic_stringIcSt11char_traitsIcESaIcEE12_Alloc_hiderC1EPcOS3_(%"struct.std::__cxx11::basic_string<char>::_Alloc_hider"* %3, i8* %4, %"class.std::allocator.2"* %5), !dbg !352
  %6 = call i8 @_ZNKSt7__cxx1112basic_stringIcSt11char_traitsIcESaIcEE11_M_is_localEv(%"class.std::__cxx11::basic_string"* %1), !dbg !353
  %7 = icmp ne i8 %6, 0, !dbg !354
  br i1 %7, label %8, label %18, !dbg !354

8:                                                ; preds = %2
  %9 = getelementptr %"class.std::__cxx11::basic_string", %"class.std::__cxx11::basic_string"* %0, i32 0, i32 2, !dbg !355
  %10 = getelementptr %union.anon, %union.anon* %9, i32 0, i32 0, !dbg !355
  %11 = bitcast i64* %10 to [16 x i8]*, !dbg !355
  %12 = getelementptr [16 x i8], [16 x i8]* %11, i32 0, i32 0, !dbg !355
  %13 = getelementptr %"class.std::__cxx11::basic_string", %"class.std::__cxx11::basic_string"* %1, i32 0, i32 2, !dbg !356
  %14 = getelementptr %union.anon, %union.anon* %13, i32 0, i32 0, !dbg !356
  %15 = bitcast i64* %14 to [16 x i8]*, !dbg !356
  %16 = getelementptr [16 x i8], [16 x i8]* %15, i32 0, i32 0, !dbg !357
  %17 = call i8* @_ZNSt11char_traitsIcE4copyEPcPKcm(i8* %12, i8* %16, i64 16), !dbg !358
  br label %23, !dbg !354

18:                                               ; preds = %2
  %19 = call i8* @_ZNKSt7__cxx1112basic_stringIcSt11char_traitsIcESaIcEE7_M_dataEv(%"class.std::__cxx11::basic_string"* %1), !dbg !359
  call void @_ZNSt7__cxx1112basic_stringIcSt11char_traitsIcESaIcEE7_M_dataEPc(%"class.std::__cxx11::basic_string"* %0, i8* %19), !dbg !360
  %20 = getelementptr %"class.std::__cxx11::basic_string", %"class.std::__cxx11::basic_string"* %1, i32 0, i32 2, !dbg !361
  %21 = getelementptr %union.anon, %union.anon* %20, i32 0, i32 0, !dbg !361
  %22 = load i64, i64* %21, align 8, !dbg !362
  call void @_ZNSt7__cxx1112basic_stringIcSt11char_traitsIcESaIcEE11_M_capacityEm(%"class.std::__cxx11::basic_string"* %0, i64 %22), !dbg !363
  br label %23, !dbg !354

23:                                               ; preds = %8, %18
  %24 = call i64 @_ZNKSt7__cxx1112basic_stringIcSt11char_traitsIcESaIcEE6lengthEv(%"class.std::__cxx11::basic_string"* %1), !dbg !364
  call void @_ZNSt7__cxx1112basic_stringIcSt11char_traitsIcESaIcEE9_M_lengthEm(%"class.std::__cxx11::basic_string"* %0, i64 %24), !dbg !365
  %25 = call i8* @_ZNSt7__cxx1112basic_stringIcSt11char_traitsIcESaIcEE13_M_local_dataEv(%"class.std::__cxx11::basic_string"* %1), !dbg !366
  call void @_ZNSt7__cxx1112basic_stringIcSt11char_traitsIcESaIcEE7_M_dataEPc(%"class.std::__cxx11::basic_string"* %1, i8* %25), !dbg !367
  call void @_ZNSt7__cxx1112basic_stringIcSt11char_traitsIcESaIcEE13_M_set_lengthEm(%"class.std::__cxx11::basic_string"* %1, i64 0), !dbg !368
  ret void, !dbg !369
}

define available_externally void @_ZNSt7__cxx1112basic_stringIcSt11char_traitsIcESaIcEEC1EPKcRKS3_(%"class.std::__cxx11::basic_string"* %0, i8* %1, %"class.std::allocator.2"* %2) #1 !dbg !370 {
  %4 = getelementptr %"class.std::__cxx11::basic_string", %"class.std::__cxx11::basic_string"* %0, i32 0, i32 0, !dbg !371
  %5 = call i8* @_ZNSt7__cxx1112basic_stringIcSt11char_traitsIcESaIcEE13_M_local_dataEv(%"class.std::__cxx11::basic_string"* %0), !dbg !373
  call void @_ZNSt7__cxx1112basic_stringIcSt11char_traitsIcESaIcEE12_Alloc_hiderC1EPcRKS3_(%"struct.std::__cxx11::basic_string<char>::_Alloc_hider"* %4, i8* %5, %"class.std::allocator.2"* %2), !dbg !374
  %6 = icmp ne i8* %1, null, !dbg !375
  br i1 %6, label %7, label %10, !dbg !375

7:                                                ; preds = %3
  %8 = call i64 @strlen(i8* %1), !dbg !376
  %9 = getelementptr i8, i8* %1, i64 %8, !dbg !380
  br label %12, !dbg !375

10:                                               ; preds = %3
  %11 = getelementptr i8, i8* %1, i32 -1, !dbg !381
  br label %12, !dbg !375

12:                                               ; preds = %7, %10
  %13 = phi i8* [ %11, %10 ], [ %9, %7 ]
  br label %14, !dbg !375

14:                                               ; preds = %12
  call void @_ZNSt7__cxx1112basic_stringIcSt11char_traitsIcESaIcEE12_M_constructIPKcEEvT_S8_(%"class.std::__cxx11::basic_string"* %0, i8* %1, i8* %13), !dbg !382
  ret void, !dbg !383
}

define available_externally void @_ZNSaIcEC1Ev(%"class.std::allocator.2"* %0) #1 !dbg !384 {
  ret void, !dbg !386
}

define linkonce_odr i8 @_ZSteqIcSt11char_traitsIcESaIcEEbRKNSt7__cxx1112basic_stringIT_T0_T1_EEPKS5_(%"class.std::__cxx11::basic_string"* %0, i8* %1) #1 !dbg !388 {
  %3 = call i32 @_ZNKSt7__cxx1112basic_stringIcSt11char_traitsIcESaIcEE7compareEPKc(%"class.std::__cxx11::basic_string"* %0, i8* %1), !dbg !389
  %4 = icmp eq i32 %3, 0, !dbg !391
  %5 = zext i1 %4 to i8, !dbg !391
  ret i8 %5, !dbg !392
}

define linkonce_odr %"class.std::__cxx11::basic_string" @_ZN6ReaderIi10NodeWeightIiiEiLb1EE9GetSuffixB5cxx11Ev(%class.Reader* %0) #1 !dbg !393 {
  %2 = alloca %"class.std::__cxx11::basic_string", i64 1, align 8
  %3 = alloca %"class.std::__cxx11::basic_string", i64 1, align 8
  %4 = getelementptr %class.Reader, %class.Reader* %0, i32 0, i32 0, !dbg !394
  %5 = call i64 @_ZNKSt7__cxx1112basic_stringIcSt11char_traitsIcESaIcEE5rfindEcm(%"class.std::__cxx11::basic_string"* %4, i8 46, i64 -1), !dbg !396
  %6 = icmp eq i64 %5, -1, !dbg !397
  br i1 %6, label %7, label %10, !dbg !398

7:                                                ; preds = %1
  %8 = call i8* @_ZNKSt7__cxx1112basic_stringIcSt11char_traitsIcESaIcEE7_M_dataEv(%"class.std::__cxx11::basic_string"* %4), !dbg !399
  %9 = call i32 (i8*, ...) @printf(i8* getelementptr inbounds ([27 x i8], [27 x i8]* @str31, i32 0, i32 0), i8* %8), !dbg !402
  call void @exit(i32 -1), !dbg !403
  br label %10, !dbg !398

10:                                               ; preds = %7, %1
  %11 = call %"class.std::__cxx11::basic_string" @_ZNKSt7__cxx1112basic_stringIcSt11char_traitsIcESaIcEE6substrEmm(%"class.std::__cxx11::basic_string"* %4, i64 %5, i64 -1), !dbg !404
  store %"class.std::__cxx11::basic_string" %11, %"class.std::__cxx11::basic_string"* %2, align 8, !dbg !405
  call void @_ZNSt7__cxx1112basic_stringIcSt11char_traitsIcESaIcEEC1EOS4_(%"class.std::__cxx11::basic_string"* %3, %"class.std::__cxx11::basic_string"* %2), !dbg !405
  %12 = load %"class.std::__cxx11::basic_string", %"class.std::__cxx11::basic_string"* %3, align 8, !dbg !406
  ret %"class.std::__cxx11::basic_string" %12, !dbg !407
}

define linkonce_odr %class.CSRGraph @_ZN6ReaderIi10NodeWeightIiiEiLb1EE19ReadSerializedGraphEv(%class.Reader* %0) #1 !dbg !408 {
  %2 = alloca %class.CSRGraph, i64 1, align 8
  %3 = alloca %class.CSRGraph, i64 1, align 8
  %4 = alloca %class.CSRGraph, i64 1, align 8
  %5 = alloca %class.CSRGraph, i64 1, align 8
  %6 = alloca %class.CSRGraph, i64 1, align 8
  %7 = alloca %class.CSRGraph, i64 1, align 8
  %8 = alloca %class.pvector.15, i64 1, align 8, !dbg !409
  %9 = alloca i64, i64 1, align 8, !dbg !411
  store i64 undef, i64* %9, align 8, !dbg !411
  %10 = alloca i64, i64 1, align 8, !dbg !411
  store i64 undef, i64* %10, align 8, !dbg !411
  %11 = alloca i8, i64 1, align 1, !dbg !412
  store i8 undef, i8* %11, align 1, !dbg !412
  %12 = alloca %class.Timer, i64 1, align 8, !dbg !413
  %13 = alloca %"class.std::__cxx11::basic_string", i64 1, align 8
  %14 = call %"class.std::__cxx11::basic_string" @_ZN6ReaderIi10NodeWeightIiiEiLb1EE9GetSuffixB5cxx11Ev(%class.Reader* %0), !dbg !414
  store %"class.std::__cxx11::basic_string" %14, %"class.std::__cxx11::basic_string"* %13, align 8, !dbg !414
  %15 = call i32 @_ZNKSt7__cxx1112basic_stringIcSt11char_traitsIcESaIcEE7compareEPKc(%"class.std::__cxx11::basic_string"* %13, i8* getelementptr inbounds ([5 x i8], [5 x i8]* @str11, i32 0, i32 0)), !dbg !415
  %16 = icmp eq i32 %15, 0, !dbg !418
  br i1 %16, label %17, label %18, !dbg !419

17:                                               ; preds = %1
  br label %20, !dbg !419

18:                                               ; preds = %1
  %19 = call i32 (i8*, ...) @printf(i8* getelementptr inbounds ([36 x i8], [36 x i8]* @str33, i32 0, i32 0)), !dbg !420
  call void @exit(i32 -5), !dbg !421
  br label %20, !dbg !419

20:                                               ; preds = %17, %18
  %21 = getelementptr %class.Reader, %class.Reader* %0, i32 0, i32 0, !dbg !422
  %22 = call i8* @_ZNKSt7__cxx1112basic_stringIcSt11char_traitsIcESaIcEE7_M_dataEv(%"class.std::__cxx11::basic_string"* %21), !dbg !423
  %23 = call %struct._IO_FILE* @fopen(i8* %22, i8* getelementptr inbounds ([2 x i8], [2 x i8]* @str36, i32 0, i32 0)), !dbg !425
  %24 = icmp ne %struct._IO_FILE* %23, null, !dbg !426
  %25 = xor i1 %24, true, !dbg !427
  br i1 %25, label %26, label %29, !dbg !428

26:                                               ; preds = %20
  %27 = call i8* @_ZNKSt7__cxx1112basic_stringIcSt11char_traitsIcESaIcEE7_M_dataEv(%"class.std::__cxx11::basic_string"* %21), !dbg !423
  %28 = call i32 (i8*, ...) @printf(i8* getelementptr inbounds ([23 x i8], [23 x i8]* @str37, i32 0, i32 0), i8* %27), !dbg !429
  call void @exit(i32 -6), !dbg !430
  br label %29, !dbg !428

29:                                               ; preds = %26, %20
  call void @_ZN5TimerC1Ev(%class.Timer* %12), !dbg !431
  call void @_ZN5Timer5StartEv(%class.Timer* %12), !dbg !432
  %30 = call i64 @fread(i8* %11, i64 1, i64 1, %struct._IO_FILE* %23), !dbg !433
  %31 = bitcast i64* %9 to i8*, !dbg !434
  %32 = call i64 @fread(i8* %31, i64 8, i64 1, %struct._IO_FILE* %23), !dbg !435
  %33 = bitcast i64* %10 to i8*, !dbg !436
  %34 = call i64 @fread(i8* %33, i64 8, i64 1, %struct._IO_FILE* %23), !dbg !437
  %35 = load i64, i64* %10, align 8, !dbg !438
  %36 = add i64 %35, 1, !dbg !439
  call void @_ZN7pvectorIlEC1Em(%class.pvector.15* %8, i64 %36), !dbg !440
  %37 = load i64, i64* %9, align 8, !dbg !441
  %38 = mul i64 %37, 8, !dbg !442
  %39 = call noalias noundef i8* @malloc(i64 %38), !dbg !442
  %40 = bitcast i8* %39 to %struct.NodeWeight*, !dbg !442
  %41 = load i64, i64* %10, align 8, !dbg !443
  %42 = add i64 %41, 1, !dbg !444
  %43 = mul i64 %42, 8, !dbg !445
  %44 = load i64, i64* %9, align 8, !dbg !446
  %45 = mul i64 %44, 8, !dbg !447
  %46 = call i64* @_ZNK7pvectorIlE4dataEv(%class.pvector.15* %8), !dbg !448
  %47 = bitcast i64* %46 to i8*, !dbg !449
  %48 = call i64 @fread(i8* %47, i64 %43, i64 1, %struct._IO_FILE* %23), !dbg !450
  %49 = call i64 @fread(i8* %39, i64 %45, i64 1, %struct._IO_FILE* %23), !dbg !451
  %50 = call %struct.NodeWeight** @_ZN8CSRGraphIi10NodeWeightIiiELb1EE8GenIndexERK7pvectorIlEPS1_(%class.pvector.15* %8, %struct.NodeWeight* %40), !dbg !452
  %51 = load i8, i8* %11, align 1, !dbg !453
  %52 = icmp ne i8 %51, 0, !dbg !454
  br i1 %52, label %53, label %63, !dbg !454

53:                                               ; preds = %29
  %54 = load i64, i64* %9, align 8, !dbg !455
  %55 = mul i64 %54, 8, !dbg !456
  %56 = call noalias noundef i8* @malloc(i64 %55), !dbg !456
  %57 = bitcast i8* %56 to %struct.NodeWeight*, !dbg !456
  %58 = call i64* @_ZNK7pvectorIlE4dataEv(%class.pvector.15* %8), !dbg !457
  %59 = bitcast i64* %58 to i8*, !dbg !458
  %60 = call i64 @fread(i8* %59, i64 %43, i64 1, %struct._IO_FILE* %23), !dbg !459
  %61 = call i64 @fread(i8* %56, i64 %45, i64 1, %struct._IO_FILE* %23), !dbg !460
  %62 = call %struct.NodeWeight** @_ZN8CSRGraphIi10NodeWeightIiiELb1EE8GenIndexERK7pvectorIlEPS1_(%class.pvector.15* %8, %struct.NodeWeight* %57), !dbg !461
  br label %64, !dbg !454

63:                                               ; preds = %29
  br label %64, !dbg !454

64:                                               ; preds = %53, %63
  %65 = phi %struct.NodeWeight* [ null, %63 ], [ %57, %53 ]
  %66 = phi %struct.NodeWeight** [ null, %63 ], [ %62, %53 ]
  br label %67, !dbg !454

67:                                               ; preds = %64
  %68 = call i32 @fclose(%struct._IO_FILE* %23), !dbg !462
  call void @_ZN5Timer4StopEv(%class.Timer* %12), !dbg !463
  %69 = call double @_ZNK5Timer7SecondsEv(%class.Timer* %12), !dbg !464
  call void @_Z9PrintTimePKcd(i8* getelementptr inbounds ([10 x i8], [10 x i8]* @str38, i32 0, i32 0), double %69), !dbg !465
  %70 = load i8, i8* %11, align 1, !dbg !466
  %71 = icmp ne i8 %70, 0, !dbg !467
  br i1 %71, label %72, label %76, !dbg !467

72:                                               ; preds = %67
  %73 = load i64, i64* %10, align 8, !dbg !468
  call void @_ZN8CSRGraphIi10NodeWeightIiiELb1EEC1ElPPS1_S3_S4_S3_(%class.CSRGraph* %6, i64 %73, %struct.NodeWeight** %50, %struct.NodeWeight* %40, %struct.NodeWeight** %66, %struct.NodeWeight* %65), !dbg !469
  %74 = load %class.CSRGraph, %class.CSRGraph* %6, align 8, !dbg !469
  store %class.CSRGraph %74, %class.CSRGraph* %5, align 8, !dbg !469
  call void @_ZN8CSRGraphIi10NodeWeightIiiELb1EEC1EOS2_(%class.CSRGraph* %7, %class.CSRGraph* %5), !dbg !469
  %75 = load %class.CSRGraph, %class.CSRGraph* %7, align 8, !dbg !470
  br label %80, !dbg !467

76:                                               ; preds = %67
  %77 = load i64, i64* %10, align 8, !dbg !471
  call void @_ZN8CSRGraphIi10NodeWeightIiiELb1EEC1ElPPS1_S3_(%class.CSRGraph* %3, i64 %77, %struct.NodeWeight** %50, %struct.NodeWeight* %40), !dbg !472
  %78 = load %class.CSRGraph, %class.CSRGraph* %3, align 8, !dbg !472
  store %class.CSRGraph %78, %class.CSRGraph* %2, align 8, !dbg !472
  call void @_ZN8CSRGraphIi10NodeWeightIiiELb1EEC1EOS2_(%class.CSRGraph* %4, %class.CSRGraph* %2), !dbg !472
  %79 = load %class.CSRGraph, %class.CSRGraph* %4, align 8, !dbg !473
  br label %80, !dbg !467

80:                                               ; preds = %72, %76
  %81 = phi %class.CSRGraph [ %79, %76 ], [ %75, %72 ]
  br label %82, !dbg !467

82:                                               ; preds = %80
  ret %class.CSRGraph %81, !dbg !474
}

define linkonce_odr %class.pvector.1* @_ZN7pvectorI8EdgePairIi10NodeWeightIiiEEEaSEOS4_(%class.pvector.1* %0, %class.pvector.1* %1) #1 !dbg !475 {
  %3 = icmp ne %class.pvector.1* %0, %1, !dbg !476
  br i1 %3, label %4, label %14

4:                                                ; preds = %2
  call void @_ZN7pvectorI8EdgePairIi10NodeWeightIiiEEE16ReleaseResourcesEv(%class.pvector.1* %0), !dbg !478
  %5 = getelementptr %class.pvector.1, %class.pvector.1* %0, i32 0, i32 0, !dbg !479
  %6 = getelementptr %class.pvector.1, %class.pvector.1* %1, i32 0, i32 0, !dbg !480
  %7 = load %struct.EdgePair*, %struct.EdgePair** %6, align 8, !dbg !481
  store %struct.EdgePair* %7, %struct.EdgePair** %5, align 8, !dbg !482
  %8 = getelementptr %class.pvector.1, %class.pvector.1* %0, i32 0, i32 1, !dbg !483
  %9 = getelementptr %class.pvector.1, %class.pvector.1* %1, i32 0, i32 1, !dbg !484
  %10 = load %struct.EdgePair*, %struct.EdgePair** %9, align 8, !dbg !485
  store %struct.EdgePair* %10, %struct.EdgePair** %8, align 8, !dbg !486
  %11 = getelementptr %class.pvector.1, %class.pvector.1* %0, i32 0, i32 2, !dbg !487
  %12 = getelementptr %class.pvector.1, %class.pvector.1* %1, i32 0, i32 2, !dbg !488
  %13 = load %struct.EdgePair*, %struct.EdgePair** %12, align 8, !dbg !489
  store %struct.EdgePair* %13, %struct.EdgePair** %11, align 8, !dbg !490
  store %struct.EdgePair* null, %struct.EdgePair** %6, align 8, !dbg !491
  store %struct.EdgePair* null, %struct.EdgePair** %9, align 8, !dbg !492
  store %struct.EdgePair* null, %struct.EdgePair** %12, align 8, !dbg !493
  br label %14

14:                                               ; preds = %4, %2
  ret %class.pvector.1* %0, !dbg !494
}

define linkonce_odr %class.pvector.1 @_ZN6ReaderIi10NodeWeightIiiEiLb1EE8ReadFileERb(%class.Reader* %0, i8* %1) #1 !dbg !495 {
  %3 = alloca %class.pvector.1, i64 1, align 8
  %4 = alloca %class.pvector.1, i64 1, align 8
  %5 = alloca %class.pvector.1, i64 1, align 8
  %6 = alloca %class.pvector.1, i64 1, align 8
  %7 = alloca %"class.std::__cxx11::basic_string", i64 1, align 8, !dbg !496
  %8 = alloca %"class.std::__cxx11::basic_string", i64 1, align 8
  %9 = alloca %"class.std::__cxx11::basic_string", i64 1, align 8
  %10 = alloca %class.pvector.1, i64 1, align 8, !dbg !498
  %11 = alloca %class.Timer, i64 1, align 8, !dbg !499
  call void @_ZN5TimerC1Ev(%class.Timer* %11), !dbg !500
  call void @_ZN5Timer5StartEv(%class.Timer* %11), !dbg !501
  call void @_ZN7pvectorI8EdgePairIi10NodeWeightIiiEEEC1Ev(%class.pvector.1* %10), !dbg !502
  %12 = call %"class.std::__cxx11::basic_string" @_ZN6ReaderIi10NodeWeightIiiEiLb1EE9GetSuffixB5cxx11Ev(%class.Reader* %0), !dbg !503
  store %"class.std::__cxx11::basic_string" %12, %"class.std::__cxx11::basic_string"* %8, align 8, !dbg !503
  call void @_ZNSt7__cxx1112basic_stringIcSt11char_traitsIcESaIcEEC1EOS4_(%"class.std::__cxx11::basic_string"* %9, %"class.std::__cxx11::basic_string"* %8), !dbg !503
  %13 = load %"class.std::__cxx11::basic_string", %"class.std::__cxx11::basic_string"* %9, align 8, !dbg !496
  store %"class.std::__cxx11::basic_string" %13, %"class.std::__cxx11::basic_string"* %7, align 8, !dbg !496
  %14 = getelementptr %class.Reader, %class.Reader* %0, i32 0, i32 0, !dbg !504
  %15 = call i8* @_ZNKSt7__cxx1112basic_stringIcSt11char_traitsIcESaIcEE7_M_dataEv(%"class.std::__cxx11::basic_string"* %14), !dbg !505
  %16 = call %struct._IO_FILE* @fopen(i8* %15, i8* getelementptr inbounds ([2 x i8], [2 x i8]* @str36, i32 0, i32 0)), !dbg !508
  %17 = icmp ne %struct._IO_FILE* %16, null, !dbg !509
  %18 = xor i1 %17, true, !dbg !510
  br i1 %18, label %19, label %22, !dbg !511

19:                                               ; preds = %2
  %20 = call i8* @_ZNKSt7__cxx1112basic_stringIcSt11char_traitsIcESaIcEE7_M_dataEv(%"class.std::__cxx11::basic_string"* %14), !dbg !505
  %21 = call i32 (i8*, ...) @printf(i8* getelementptr inbounds ([23 x i8], [23 x i8]* @str37, i32 0, i32 0), i8* %20), !dbg !512
  call void @exit(i32 -2), !dbg !513
  br label %22, !dbg !511

22:                                               ; preds = %19, %2
  %23 = call i32 @_ZNKSt7__cxx1112basic_stringIcSt11char_traitsIcESaIcEE7compareEPKc(%"class.std::__cxx11::basic_string"* %7, i8* getelementptr inbounds ([4 x i8], [4 x i8]* @str39, i32 0, i32 0)), !dbg !514
  %24 = icmp eq i32 %23, 0, !dbg !516
  br i1 %24, label %25, label %28, !dbg !517

25:                                               ; preds = %22
  %26 = call %class.pvector.1 @_ZN6ReaderIi10NodeWeightIiiEiLb1EE8ReadInELEP8_IO_FILE(%class.Reader* %0, %struct._IO_FILE* %16), !dbg !518
  store %class.pvector.1 %26, %class.pvector.1* %6, align 8, !dbg !518
  %27 = call %class.pvector.1* @_ZN7pvectorI8EdgePairIi10NodeWeightIiiEEEaSEOS4_(%class.pvector.1* %10, %class.pvector.1* %6), !dbg !519
  br label %54, !dbg !517

28:                                               ; preds = %22
  %29 = call i32 @_ZNKSt7__cxx1112basic_stringIcSt11char_traitsIcESaIcEE7compareEPKc(%"class.std::__cxx11::basic_string"* %7, i8* getelementptr inbounds ([5 x i8], [5 x i8]* @str40, i32 0, i32 0)), !dbg !514
  %30 = icmp eq i32 %29, 0, !dbg !516
  br i1 %30, label %31, label %34, !dbg !520

31:                                               ; preds = %28
  store i8 0, i8* %1, align 1, !dbg !521
  %32 = call %class.pvector.1 @_ZN6ReaderIi10NodeWeightIiiEiLb1EE9ReadInWELEP8_IO_FILE(%class.Reader* %0, %struct._IO_FILE* %16), !dbg !522
  store %class.pvector.1 %32, %class.pvector.1* %5, align 8, !dbg !522
  %33 = call %class.pvector.1* @_ZN7pvectorI8EdgePairIi10NodeWeightIiiEEEaSEOS4_(%class.pvector.1* %10, %class.pvector.1* %5), !dbg !523
  br label %53, !dbg !520

34:                                               ; preds = %28
  %35 = call i32 @_ZNKSt7__cxx1112basic_stringIcSt11char_traitsIcESaIcEE7compareEPKc(%"class.std::__cxx11::basic_string"* %7, i8* getelementptr inbounds ([4 x i8], [4 x i8]* @str41, i32 0, i32 0)), !dbg !514
  %36 = icmp eq i32 %35, 0, !dbg !516
  br i1 %36, label %37, label %40, !dbg !524

37:                                               ; preds = %34
  store i8 0, i8* %1, align 1, !dbg !525
  %38 = call %class.pvector.1 @_ZN6ReaderIi10NodeWeightIiiEiLb1EE8ReadInGREP8_IO_FILE(%class.Reader* %0, %struct._IO_FILE* %16), !dbg !526
  store %class.pvector.1 %38, %class.pvector.1* %4, align 8, !dbg !526
  %39 = call %class.pvector.1* @_ZN7pvectorI8EdgePairIi10NodeWeightIiiEEEaSEOS4_(%class.pvector.1* %10, %class.pvector.1* %4), !dbg !527
  br label %52, !dbg !524

40:                                               ; preds = %34
  %41 = call i32 @_ZNKSt7__cxx1112basic_stringIcSt11char_traitsIcESaIcEE7compareEPKc(%"class.std::__cxx11::basic_string"* %7, i8* getelementptr inbounds ([7 x i8], [7 x i8]* @str42, i32 0, i32 0)), !dbg !514
  %42 = icmp eq i32 %41, 0, !dbg !516
  br i1 %42, label %43, label %44, !dbg !528

43:                                               ; preds = %47, %48, %40
  br label %51, !dbg !528

44:                                               ; preds = %40
  %45 = call i32 @_ZNKSt7__cxx1112basic_stringIcSt11char_traitsIcESaIcEE7compareEPKc(%"class.std::__cxx11::basic_string"* %7, i8* getelementptr inbounds ([5 x i8], [5 x i8]* @str43, i32 0, i32 0)), !dbg !514
  %46 = icmp eq i32 %45, 0, !dbg !516
  br i1 %46, label %47, label %48, !dbg !529

47:                                               ; preds = %44
  br label %43, !dbg !529

48:                                               ; preds = %44
  %49 = call i8* @_ZNKSt7__cxx1112basic_stringIcSt11char_traitsIcESaIcEE7_M_dataEv(%"class.std::__cxx11::basic_string"* %7), !dbg !505
  %50 = call i32 (i8*, ...) @printf(i8* getelementptr inbounds ([25 x i8], [25 x i8]* @str44, i32 0, i32 0), i8* %49), !dbg !530
  call void @exit(i32 -3), !dbg !531
  br label %43, !dbg !529

51:                                               ; preds = %43
  br label %52, !dbg !524

52:                                               ; preds = %37, %51
  br label %53, !dbg !520

53:                                               ; preds = %31, %52
  br label %54, !dbg !517

54:                                               ; preds = %25, %53
  %55 = call i32 @fclose(%struct._IO_FILE* %16), !dbg !532
  call void @_ZN5Timer4StopEv(%class.Timer* %11), !dbg !533
  %56 = call double @_ZNK5Timer7SecondsEv(%class.Timer* %11), !dbg !534
  call void @_Z9PrintTimePKcd(i8* getelementptr inbounds ([10 x i8], [10 x i8]* @str38, i32 0, i32 0), double %56), !dbg !535
  call void @_ZN7pvectorI8EdgePairIi10NodeWeightIiiEEEC1EOS4_(%class.pvector.1* %3, %class.pvector.1* %10), !dbg !536
  %57 = load %class.pvector.1, %class.pvector.1* %3, align 8, !dbg !537
  ret %class.pvector.1 %57, !dbg !538
}

define linkonce_odr i32 @_ZNK6CLBase5scaleEv(%class.CLBase* %0) #1 !dbg !539 {
  %2 = getelementptr %class.CLBase, %class.CLBase* %0, i32 0, i32 6, !dbg !540
  %3 = load i32, i32* %2, align 4, !dbg !540
  ret i32 %3, !dbg !542
}

define linkonce_odr void @_ZN9GeneratorIi10NodeWeightIiiEiEC1Eii(%class.Generator* %0, i32 %1, i32 %2) #1 !dbg !543 {
  %4 = getelementptr %class.Generator, %class.Generator* %0, i32 0, i32 0, !dbg !545
  store i32 %1, i32* %4, align 4, !dbg !547
  %5 = getelementptr %class.Generator, %class.Generator* %0, i32 0, i32 2, !dbg !548
  %6 = zext i32 %1 to i64, !dbg !549
  %7 = shl i64 1, %6, !dbg !549
  store i64 %7, i64* %5, align 8, !dbg !550
  %8 = getelementptr %class.Generator, %class.Generator* %0, i32 0, i32 3, !dbg !551
  %9 = load i64, i64* %5, align 8, !dbg !552
  %10 = sext i32 %2 to i64, !dbg !553
  %11 = mul i64 %9, %10, !dbg !554
  store i64 %11, i64* %8, align 8, !dbg !555
  %12 = load i64, i64* %5, align 8, !dbg !556
  %13 = icmp sgt i64 %12, 2147483647, !dbg !557
  br i1 %13, label %14, label %20, !dbg !558

14:                                               ; preds = %3
  %15 = call i32 (i8*, ...) @printf(i8* getelementptr inbounds ([21 x i8], [21 x i8]* @str45, i32 0, i32 0), i32 2147483647), !dbg !559
  %16 = load i64, i64* %5, align 8, !dbg !560
  %17 = call i32 (i8*, ...) @printf(i8* getelementptr inbounds ([25 x i8], [25 x i8]* @str46, i32 0, i32 0), i64 %16), !dbg !561
  %18 = call i32 (i8*, ...) @printf(i8* getelementptr inbounds ([57 x i8], [57 x i8]* @str47, i32 0, i32 0)), !dbg !562
  %19 = call i32 (i8*, ...) @printf(i8* getelementptr inbounds ([34 x i8], [34 x i8]* @str48, i32 0, i32 0)), !dbg !563
  call void @exit(i32 -31), !dbg !564
  br label %20, !dbg !558

20:                                               ; preds = %14, %3
  ret void, !dbg !565
}

define linkonce_odr i32 @_ZNK6CLBase6degreeEv(%class.CLBase* %0) #1 !dbg !566 {
  %2 = getelementptr %class.CLBase, %class.CLBase* %0, i32 0, i32 7, !dbg !567
  %3 = load i32, i32* %2, align 4, !dbg !567
  ret i32 %3, !dbg !569
}

define linkonce_odr %class.pvector.1 @_ZN9GeneratorIi10NodeWeightIiiEiE10GenerateELEb(%class.Generator* %0, i8 %1) #1 !dbg !570 {
  %3 = alloca %class.pvector.1, i64 1, align 8
  %4 = alloca %class.pvector.1, i64 1, align 8
  %5 = alloca %class.pvector.1, i64 1, align 8
  %6 = alloca %class.Timer, i64 1, align 8, !dbg !571
  %7 = alloca %class.pvector.1, i64 1, align 8, !dbg !573
  call void @_ZN7pvectorI8EdgePairIi10NodeWeightIiiEEEC1Ev(%class.pvector.1* %7), !dbg !574
  call void @_ZN5TimerC1Ev(%class.Timer* %6), !dbg !575
  call void @_ZN5Timer5StartEv(%class.Timer* %6), !dbg !576
  %8 = icmp ne i8 %1, 0, !dbg !577
  br i1 %8, label %9, label %12, !dbg !577

9:                                                ; preds = %2
  %10 = call %class.pvector.1 @_ZN9GeneratorIi10NodeWeightIiiEiE13MakeUniformELEv(%class.Generator* %0), !dbg !578
  store %class.pvector.1 %10, %class.pvector.1* %5, align 8, !dbg !578
  %11 = call %class.pvector.1* @_ZN7pvectorI8EdgePairIi10NodeWeightIiiEEEaSEOS4_(%class.pvector.1* %7, %class.pvector.1* %5), !dbg !579
  br label %15, !dbg !577

12:                                               ; preds = %2
  %13 = call %class.pvector.1 @_ZN9GeneratorIi10NodeWeightIiiEiE10MakeRMatELEv(%class.Generator* %0), !dbg !580
  store %class.pvector.1 %13, %class.pvector.1* %4, align 8, !dbg !580
  %14 = call %class.pvector.1* @_ZN7pvectorI8EdgePairIi10NodeWeightIiiEEEaSEOS4_(%class.pvector.1* %7, %class.pvector.1* %4), !dbg !581
  br label %15, !dbg !577

15:                                               ; preds = %9, %12
  call void @_ZN5Timer4StopEv(%class.Timer* %6), !dbg !582
  %16 = call double @_ZNK5Timer7SecondsEv(%class.Timer* %6), !dbg !583
  call void @_Z9PrintTimePKcd(i8* getelementptr inbounds ([14 x i8], [14 x i8]* @str49, i32 0, i32 0), double %16), !dbg !584
  call void @_ZN7pvectorI8EdgePairIi10NodeWeightIiiEEEC1EOS4_(%class.pvector.1* %3, %class.pvector.1* %7), !dbg !585
  %17 = load %class.pvector.1, %class.pvector.1* %3, align 8, !dbg !586
  ret %class.pvector.1 %17, !dbg !587
}

define linkonce_odr i8 @_ZNK6CLBase7uniformEv(%class.CLBase* %0) #1 !dbg !588 {
  %2 = getelementptr %class.CLBase, %class.CLBase* %0, i32 0, i32 10, !dbg !589
  %3 = load i8, i8* %2, align 1, !dbg !589
  ret i8 %3, !dbg !591
}

define linkonce_odr %class.CSRGraph* @_ZN8CSRGraphIi10NodeWeightIiiELb1EEaSEOS2_(%class.CSRGraph* %0, %class.CSRGraph* %1) #1 !dbg !592 {
  %3 = icmp ne %class.CSRGraph* %0, %1, !dbg !593
  br i1 %3, label %4, label %26

4:                                                ; preds = %2
  call void @_ZN8CSRGraphIi10NodeWeightIiiELb1EE16ReleaseResourcesEv(%class.CSRGraph* %0), !dbg !595
  %5 = getelementptr %class.CSRGraph, %class.CSRGraph* %0, i32 0, i32 0, !dbg !596
  %6 = getelementptr %class.CSRGraph, %class.CSRGraph* %1, i32 0, i32 0, !dbg !597
  %7 = load i8, i8* %6, align 1, !dbg !598
  store i8 %7, i8* %5, align 1, !dbg !599
  %8 = getelementptr %class.CSRGraph, %class.CSRGraph* %0, i32 0, i32 3, !dbg !600
  %9 = getelementptr %class.CSRGraph, %class.CSRGraph* %1, i32 0, i32 3, !dbg !601
  %10 = load i64, i64* %9, align 8, !dbg !602
  store i64 %10, i64* %8, align 8, !dbg !603
  %11 = getelementptr %class.CSRGraph, %class.CSRGraph* %0, i32 0, i32 2, !dbg !604
  %12 = getelementptr %class.CSRGraph, %class.CSRGraph* %1, i32 0, i32 2, !dbg !605
  %13 = load i64, i64* %12, align 8, !dbg !606
  store i64 %13, i64* %11, align 8, !dbg !607
  %14 = getelementptr %class.CSRGraph, %class.CSRGraph* %0, i32 0, i32 4, !dbg !608
  %15 = getelementptr %class.CSRGraph, %class.CSRGraph* %1, i32 0, i32 4, !dbg !609
  %16 = load %struct.NodeWeight**, %struct.NodeWeight*** %15, align 8, !dbg !610
  store %struct.NodeWeight** %16, %struct.NodeWeight*** %14, align 8, !dbg !611
  %17 = getelementptr %class.CSRGraph, %class.CSRGraph* %0, i32 0, i32 5, !dbg !612
  %18 = getelementptr %class.CSRGraph, %class.CSRGraph* %1, i32 0, i32 5, !dbg !613
  %19 = load %struct.NodeWeight*, %struct.NodeWeight** %18, align 8, !dbg !614
  store %struct.NodeWeight* %19, %struct.NodeWeight** %17, align 8, !dbg !615
  %20 = getelementptr %class.CSRGraph, %class.CSRGraph* %0, i32 0, i32 6, !dbg !616
  %21 = getelementptr %class.CSRGraph, %class.CSRGraph* %1, i32 0, i32 6, !dbg !617
  %22 = load %struct.NodeWeight**, %struct.NodeWeight*** %21, align 8, !dbg !618
  store %struct.NodeWeight** %22, %struct.NodeWeight*** %20, align 8, !dbg !619
  %23 = getelementptr %class.CSRGraph, %class.CSRGraph* %0, i32 0, i32 7, !dbg !620
  %24 = getelementptr %class.CSRGraph, %class.CSRGraph* %1, i32 0, i32 7, !dbg !621
  %25 = load %struct.NodeWeight*, %struct.NodeWeight** %24, align 8, !dbg !622
  store %struct.NodeWeight* %25, %struct.NodeWeight** %23, align 8, !dbg !623
  store i64 -1, i64* %9, align 8, !dbg !624
  store i64 -1, i64* %12, align 8, !dbg !625
  store %struct.NodeWeight** null, %struct.NodeWeight*** %15, align 8, !dbg !626
  store %struct.NodeWeight* null, %struct.NodeWeight** %18, align 8, !dbg !627
  store %struct.NodeWeight** null, %struct.NodeWeight*** %21, align 8, !dbg !628
  store %struct.NodeWeight* null, %struct.NodeWeight** %24, align 8, !dbg !629
  br label %26

26:                                               ; preds = %4, %2
  ret %class.CSRGraph* %0, !dbg !630
}

define linkonce_odr %class.CSRGraph @_ZN11BuilderBaseIi10NodeWeightIiiEiLb1EE15MakeGraphFromELER7pvectorI8EdgePairIiS1_EE(%class.BuilderBase* %0, %class.pvector.1* %1) #1 !dbg !631 {
  %3 = alloca %class.CSRGraph, i64 1, align 8
  %4 = alloca %class.CSRGraph, i64 1, align 8
  %5 = alloca %class.CSRGraph, i64 1, align 8
  %6 = alloca %class.CSRGraph, i64 1, align 8
  %7 = alloca %class.CSRGraph, i64 1, align 8
  %8 = alloca %class.CSRGraph, i64 1, align 8
  %9 = alloca %class.Timer, i64 1, align 8, !dbg !632
  %10 = alloca %struct.NodeWeight*, i64 1, align 8, !dbg !634
  %11 = alloca %struct.NodeWeight*, i64 1, align 8, !dbg !634
  %12 = alloca %struct.NodeWeight**, i64 1, align 8, !dbg !635
  %13 = alloca %struct.NodeWeight**, i64 1, align 8, !dbg !635
  store %struct.NodeWeight** null, %struct.NodeWeight*** %13, align 8, !dbg !635
  store %struct.NodeWeight** null, %struct.NodeWeight*** %12, align 8, !dbg !635
  store %struct.NodeWeight* null, %struct.NodeWeight** %11, align 8, !dbg !634
  store %struct.NodeWeight* null, %struct.NodeWeight** %10, align 8, !dbg !634
  call void @_ZN5TimerC1Ev(%class.Timer* %9), !dbg !636
  call void @_ZN5Timer5StartEv(%class.Timer* %9), !dbg !637
  %14 = getelementptr %class.BuilderBase, %class.BuilderBase* %0, i32 0, i32 5, !dbg !638
  %15 = load i64, i64* %14, align 8, !dbg !638
  %16 = icmp eq i64 %15, -1, !dbg !639
  br i1 %16, label %17, label %21, !dbg !640

17:                                               ; preds = %2
  %18 = call i32 @_ZN11BuilderBaseIi10NodeWeightIiiEiLb1EE13FindMaxNodeIDERK7pvectorI8EdgePairIiS1_EE(%class.BuilderBase* %0, %class.pvector.1* %1), !dbg !641
  %19 = add i32 %18, 1, !dbg !642
  %20 = sext i32 %19 to i64, !dbg !641
  store i64 %20, i64* %14, align 8, !dbg !643
  br label %21, !dbg !640

21:                                               ; preds = %17, %2
  %22 = getelementptr %class.BuilderBase, %class.BuilderBase* %0, i32 0, i32 2, !dbg !644
  %23 = load i8, i8* %22, align 1, !dbg !644
  %24 = icmp ne i8 %23, 0, !dbg !645
  br i1 %24, label %25, label %26, !dbg !645

25:                                               ; preds = %21
  call void @_ZN9GeneratorIi10NodeWeightIiiEiE13InsertWeightsER7pvectorI8EdgePairIiS1_EE(%class.pvector.1* %1), !dbg !646
  br label %26, !dbg !645

26:                                               ; preds = %25, %21
  %27 = getelementptr %class.BuilderBase, %class.BuilderBase* %0, i32 0, i32 3, !dbg !647
  %28 = load i8, i8* %27, align 1, !dbg !647
  %29 = icmp ne i8 %28, 0, !dbg !648
  br i1 %29, label %30, label %31, !dbg !648

30:                                               ; preds = %26
  call void @_ZN11BuilderBaseIi10NodeWeightIiiEiLb1EE14MakeCSRInPlaceER7pvectorI8EdgePairIiS1_EEPPPS1_S9_SA_S9_(%class.BuilderBase* %0, %class.pvector.1* %1, %struct.NodeWeight*** %13, %struct.NodeWeight** %11, %struct.NodeWeight*** %12, %struct.NodeWeight** %10), !dbg !649
  br label %38, !dbg !648

31:                                               ; preds = %26
  call void @_ZN11BuilderBaseIi10NodeWeightIiiEiLb1EE7MakeCSRERK7pvectorI8EdgePairIiS1_EEbPPPS1_SA_(%class.BuilderBase* %0, %class.pvector.1* %1, i8 0, %struct.NodeWeight*** %13, %struct.NodeWeight** %11), !dbg !650
  %32 = getelementptr %class.BuilderBase, %class.BuilderBase* %0, i32 0, i32 1, !dbg !651
  %33 = load i8, i8* %32, align 1, !dbg !651
  %34 = icmp ne i8 %33, 0, !dbg !652
  br i1 %34, label %35, label %36, !dbg !653

35:                                               ; preds = %31
  br label %37, !dbg !653

36:                                               ; preds = %31
  call void @_ZN11BuilderBaseIi10NodeWeightIiiEiLb1EE7MakeCSRERK7pvectorI8EdgePairIiS1_EEbPPPS1_SA_(%class.BuilderBase* %0, %class.pvector.1* %1, i8 1, %struct.NodeWeight*** %12, %struct.NodeWeight** %10), !dbg !654
  br label %37, !dbg !653

37:                                               ; preds = %35, %36
  br label %38, !dbg !648

38:                                               ; preds = %30, %37
  call void @_ZN5Timer4StopEv(%class.Timer* %9), !dbg !655
  %39 = call double @_ZNK5Timer7SecondsEv(%class.Timer* %9), !dbg !656
  call void @_Z9PrintTimePKcd(i8* getelementptr inbounds ([11 x i8], [11 x i8]* @str50, i32 0, i32 0), double %39), !dbg !657
  %40 = getelementptr %class.BuilderBase, %class.BuilderBase* %0, i32 0, i32 1, !dbg !658
  %41 = load i8, i8* %40, align 1, !dbg !658
  %42 = icmp ne i8 %41, 0, !dbg !659
  br i1 %42, label %43, label %49, !dbg !659

43:                                               ; preds = %38
  %44 = load i64, i64* %14, align 8, !dbg !660
  %45 = load %struct.NodeWeight**, %struct.NodeWeight*** %13, align 8, !dbg !661
  %46 = load %struct.NodeWeight*, %struct.NodeWeight** %11, align 8, !dbg !662
  call void @_ZN8CSRGraphIi10NodeWeightIiiELb1EEC1ElPPS1_S3_(%class.CSRGraph* %7, i64 %44, %struct.NodeWeight** %45, %struct.NodeWeight* %46), !dbg !663
  %47 = load %class.CSRGraph, %class.CSRGraph* %7, align 8, !dbg !663
  store %class.CSRGraph %47, %class.CSRGraph* %6, align 8, !dbg !663
  call void @_ZN8CSRGraphIi10NodeWeightIiiELb1EEC1EOS2_(%class.CSRGraph* %8, %class.CSRGraph* %6), !dbg !663
  %48 = load %class.CSRGraph, %class.CSRGraph* %8, align 8, !dbg !664
  br label %57, !dbg !659

49:                                               ; preds = %38
  %50 = load i64, i64* %14, align 8, !dbg !665
  %51 = load %struct.NodeWeight**, %struct.NodeWeight*** %13, align 8, !dbg !666
  %52 = load %struct.NodeWeight*, %struct.NodeWeight** %11, align 8, !dbg !667
  %53 = load %struct.NodeWeight**, %struct.NodeWeight*** %12, align 8, !dbg !668
  %54 = load %struct.NodeWeight*, %struct.NodeWeight** %10, align 8, !dbg !669
  call void @_ZN8CSRGraphIi10NodeWeightIiiELb1EEC1ElPPS1_S3_S4_S3_(%class.CSRGraph* %4, i64 %50, %struct.NodeWeight** %51, %struct.NodeWeight* %52, %struct.NodeWeight** %53, %struct.NodeWeight* %54), !dbg !670
  %55 = load %class.CSRGraph, %class.CSRGraph* %4, align 8, !dbg !670
  store %class.CSRGraph %55, %class.CSRGraph* %3, align 8, !dbg !670
  call void @_ZN8CSRGraphIi10NodeWeightIiiELb1EEC1EOS2_(%class.CSRGraph* %5, %class.CSRGraph* %3), !dbg !670
  %56 = load %class.CSRGraph, %class.CSRGraph* %5, align 8, !dbg !671
  br label %57, !dbg !659

57:                                               ; preds = %43, %49
  %58 = phi %class.CSRGraph [ %56, %49 ], [ %48, %43 ]
  br label %59, !dbg !659

59:                                               ; preds = %57
  ret %class.CSRGraph %58, !dbg !672
}

define linkonce_odr %class.CSRGraph @_ZN11BuilderBaseIi10NodeWeightIiiEiLb1EE11SquishGraphERK8CSRGraphIiS1_Lb1EE(%class.BuilderBase* %0, %class.CSRGraph* %1) #1 !dbg !673 {
  %3 = alloca %class.CSRGraph, i64 1, align 8
  %4 = alloca %class.CSRGraph, i64 1, align 8
  %5 = alloca %class.CSRGraph, i64 1, align 8
  %6 = alloca %class.CSRGraph, i64 1, align 8
  %7 = alloca %class.CSRGraph, i64 1, align 8
  %8 = alloca %class.CSRGraph, i64 1, align 8
  %9 = alloca %struct.NodeWeight*, i64 1, align 8, !dbg !674
  %10 = alloca %struct.NodeWeight**, i64 1, align 8, !dbg !674
  %11 = alloca %struct.NodeWeight*, i64 1, align 8, !dbg !674
  %12 = alloca %struct.NodeWeight**, i64 1, align 8, !dbg !674
  call void @_ZN11BuilderBaseIi10NodeWeightIiiEiLb1EE9SquishCSRERK8CSRGraphIiS1_Lb1EEbPPPS1_S8_(%class.BuilderBase* %0, %class.CSRGraph* %1, i8 0, %struct.NodeWeight*** %12, %struct.NodeWeight** %11), !dbg !676
  %13 = call i8 @_ZNK8CSRGraphIi10NodeWeightIiiELb1EE8directedEv(%class.CSRGraph* %1), !dbg !677
  %14 = icmp ne i8 %13, 0, !dbg !678
  br i1 %14, label %15, label %23, !dbg !678

15:                                               ; preds = %2
  call void @_ZN11BuilderBaseIi10NodeWeightIiiEiLb1EE9SquishCSRERK8CSRGraphIiS1_Lb1EEbPPPS1_S8_(%class.BuilderBase* %0, %class.CSRGraph* %1, i8 1, %struct.NodeWeight*** %10, %struct.NodeWeight** %9), !dbg !679
  %16 = call i64 @_ZNK8CSRGraphIi10NodeWeightIiiELb1EE9num_nodesEv(%class.CSRGraph* %1), !dbg !680
  %17 = load %struct.NodeWeight**, %struct.NodeWeight*** %12, align 8, !dbg !681
  %18 = load %struct.NodeWeight*, %struct.NodeWeight** %11, align 8, !dbg !682
  %19 = load %struct.NodeWeight**, %struct.NodeWeight*** %10, align 8, !dbg !683
  %20 = load %struct.NodeWeight*, %struct.NodeWeight** %9, align 8, !dbg !684
  call void @_ZN8CSRGraphIi10NodeWeightIiiELb1EEC1ElPPS1_S3_S4_S3_(%class.CSRGraph* %7, i64 %16, %struct.NodeWeight** %17, %struct.NodeWeight* %18, %struct.NodeWeight** %19, %struct.NodeWeight* %20), !dbg !685
  %21 = load %class.CSRGraph, %class.CSRGraph* %7, align 8, !dbg !685
  store %class.CSRGraph %21, %class.CSRGraph* %6, align 8, !dbg !685
  call void @_ZN8CSRGraphIi10NodeWeightIiiELb1EEC1EOS2_(%class.CSRGraph* %8, %class.CSRGraph* %6), !dbg !685
  %22 = load %class.CSRGraph, %class.CSRGraph* %8, align 8, !dbg !686
  br label %29, !dbg !678

23:                                               ; preds = %2
  %24 = call i64 @_ZNK8CSRGraphIi10NodeWeightIiiELb1EE9num_nodesEv(%class.CSRGraph* %1), !dbg !687
  %25 = load %struct.NodeWeight**, %struct.NodeWeight*** %12, align 8, !dbg !688
  %26 = load %struct.NodeWeight*, %struct.NodeWeight** %11, align 8, !dbg !689
  call void @_ZN8CSRGraphIi10NodeWeightIiiELb1EEC1ElPPS1_S3_(%class.CSRGraph* %4, i64 %24, %struct.NodeWeight** %25, %struct.NodeWeight* %26), !dbg !690
  %27 = load %class.CSRGraph, %class.CSRGraph* %4, align 8, !dbg !690
  store %class.CSRGraph %27, %class.CSRGraph* %3, align 8, !dbg !690
  call void @_ZN8CSRGraphIi10NodeWeightIiiELb1EEC1EOS2_(%class.CSRGraph* %5, %class.CSRGraph* %3), !dbg !690
  %28 = load %class.CSRGraph, %class.CSRGraph* %5, align 8, !dbg !691
  br label %29, !dbg !678

29:                                               ; preds = %15, %23
  %30 = phi %class.CSRGraph [ %28, %23 ], [ %22, %15 ]
  br label %31, !dbg !678

31:                                               ; preds = %29
  ret %class.CSRGraph %30, !dbg !692
}

define linkonce_odr void @_ZNSt23mersenne_twister_engineImLm32ELm624ELm397ELm31ELm2567483615ELm11ELm4294967295ELm7ELm2636928640ELm15ELm4022730752ELm18ELm1812433253EEC1Em(%"class.std::mersenne_twister_engine"* %0, i64 %1) #1 !dbg !693 {
  call void @_ZNSt23mersenne_twister_engineImLm32ELm624ELm397ELm31ELm2567483615ELm11ELm4294967295ELm7ELm2636928640ELm15ELm4022730752ELm18ELm1812433253EE4seedEm(%"class.std::mersenne_twister_engine"* %0, i64 %1), !dbg !694
  ret void, !dbg !696
}

define linkonce_odr void @_ZNSt24uniform_int_distributionIiEC1Eii(%"class.std::uniform_int_distribution"* %0, i32 %1, i32 %2) #1 !dbg !697 {
  %4 = getelementptr %"class.std::uniform_int_distribution", %"class.std::uniform_int_distribution"* %0, i32 0, i32 0, !dbg !699
  call void @_ZNSt24uniform_int_distributionIiE10param_typeC1Eii(%"struct.std::uniform_int_distribution<>::param_type"* %4, i32 %1, i32 %2), !dbg !701
  ret void, !dbg !702
}

define linkonce_odr i64 @_ZNK8CSRGraphIi10NodeWeightIiiELb1EE9num_nodesEv(%class.CSRGraph* %0) #1 !dbg !703 {
  %2 = getelementptr %class.CSRGraph, %class.CSRGraph* %0, i32 0, i32 2, !dbg !704
  %3 = load i64, i64* %2, align 8, !dbg !704
  ret i64 %3, !dbg !706
}

define linkonce_odr void @_ZNK8CSRGraphIi10NodeWeightIiiELb1EE10PrintStatsEv(%class.CSRGraph* %0) #1 !dbg !707 {
  %2 = getelementptr %class.CSRGraph, %class.CSRGraph* %0, i32 0, i32 2, !dbg !708
  %3 = load i64, i64* %2, align 8, !dbg !708
  %4 = getelementptr %class.CSRGraph, %class.CSRGraph* %0, i32 0, i32 3, !dbg !710
  %5 = load i64, i64* %4, align 8, !dbg !710
  %6 = call i32 (i8*, ...) @printf(i8* getelementptr inbounds ([29 x i8], [29 x i8]* @str51, i32 0, i32 0), i64 %3, i64 %5), !dbg !711
  %7 = getelementptr %class.CSRGraph, %class.CSRGraph* %0, i32 0, i32 0, !dbg !712
  %8 = load i8, i8* %7, align 1, !dbg !712
  %9 = icmp eq i8 %8, 0, !dbg !713
  br i1 %9, label %10, label %12, !dbg !714

10:                                               ; preds = %1
  %11 = call i32 (i8*, ...) @printf(i8* getelementptr inbounds ([3 x i8], [3 x i8]* @str52, i32 0, i32 0)), !dbg !715
  br label %12, !dbg !714

12:                                               ; preds = %10, %1
  %13 = call i32 (i8*, ...) @printf(i8* getelementptr inbounds ([28 x i8], [28 x i8]* @str53, i32 0, i32 0)), !dbg !716
  %14 = load i64, i64* %4, align 8, !dbg !717
  %15 = load i64, i64* %2, align 8, !dbg !718
  %16 = sdiv i64 %14, %15, !dbg !719
  %17 = call i32 (i8*, ...) @printf(i8* getelementptr inbounds ([5 x i8], [5 x i8]* @str54, i32 0, i32 0), i64 %16), !dbg !720
  ret void, !dbg !721
}

define linkonce_odr void @_ZN5TimerC1Ev(%class.Timer* %0) #1 !dbg !722 {
  %2 = getelementptr %class.Timer, %class.Timer* %0, i32 0, i32 0, !dbg !724
  call void @_ZNSt6chrono10time_pointINS_3_V212system_clockENS_8durationIlSt5ratioILl1ELl1000000000EEEEEC1Ev(%"struct.std::chrono::time_point"* %2), !dbg !724
  %3 = getelementptr %class.Timer, %class.Timer* %0, i32 0, i32 1, !dbg !724
  call void @_ZNSt6chrono10time_pointINS_3_V212system_clockENS_8durationIlSt5ratioILl1ELl1000000000EEEEEC1Ev(%"struct.std::chrono::time_point"* %3), !dbg !724
  ret void, !dbg !726
}

define linkonce_odr void @_ZN5Timer5StartEv(%class.Timer* %0) #1 !dbg !727 {
  %2 = alloca %"struct.std::chrono::time_point", i64 1, align 8
  %3 = getelementptr %class.Timer, %class.Timer* %0, i32 0, i32 1, !dbg !728
  %4 = getelementptr %class.Timer, %class.Timer* %0, i32 0, i32 0, !dbg !730
  %5 = call %"struct.std::chrono::time_point" @_ZNSt6chrono3_V212system_clock3nowEv(), !dbg !731
  store %"struct.std::chrono::time_point" %5, %"struct.std::chrono::time_point"* %2, align 8, !dbg !731
  %6 = call %"struct.std::chrono::time_point"* @_ZNSt6chrono10time_pointINS_3_V212system_clockENS_8durationIlSt5ratioILl1ELl1000000000EEEEEaSEOS7_(%"struct.std::chrono::time_point"* %4, %"struct.std::chrono::time_point"* %2), !dbg !732
  %7 = call %"struct.std::chrono::time_point"* @_ZNSt6chrono10time_pointINS_3_V212system_clockENS_8durationIlSt5ratioILl1ELl1000000000EEEEEaSERKS7_(%"struct.std::chrono::time_point"* %3, %"struct.std::chrono::time_point"* %6), !dbg !733
  ret void, !dbg !734
}

define linkonce_odr void @_ZN7pvectorIiEC1EOS0_(%class.pvector* %0, %class.pvector* %1) #1 !dbg !735 {
  %3 = getelementptr %class.pvector, %class.pvector* %1, i32 0, i32 0, !dbg !736
  %4 = load i32*, i32** %3, align 8, !dbg !738
  %5 = getelementptr %class.pvector, %class.pvector* %0, i32 0, i32 0, !dbg !739
  store i32* %4, i32** %5, align 8, !dbg !739
  %6 = getelementptr %class.pvector, %class.pvector* %1, i32 0, i32 1, !dbg !740
  %7 = load i32*, i32** %6, align 8, !dbg !741
  %8 = getelementptr %class.pvector, %class.pvector* %0, i32 0, i32 1, !dbg !739
  store i32* %7, i32** %8, align 8, !dbg !739
  %9 = getelementptr %class.pvector, %class.pvector* %1, i32 0, i32 2, !dbg !742
  %10 = load i32*, i32** %9, align 8, !dbg !743
  %11 = getelementptr %class.pvector, %class.pvector* %0, i32 0, i32 2, !dbg !739
  store i32* %10, i32** %11, align 8, !dbg !739
  store i32* null, i32** %3, align 8, !dbg !744
  store i32* null, i32** %6, align 8, !dbg !745
  store i32* null, i32** %9, align 8, !dbg !746
  ret void, !dbg !747
}

define internal %class.pvector @"_ZZ4mainENK3$_0clERK8CSRGraphIi10NodeWeightIiiELb1EE"(%class.anon* %0, %class.CSRGraph* %1) #1 !dbg !748 {
  %3 = alloca %class.pvector, i64 1, align 8
  %4 = alloca %class.pvector, i64 1, align 8
  %5 = getelementptr %class.anon, %class.anon* %0, i32 0, i32 0, !dbg !749
  %6 = load %class.SourcePicker*, %class.SourcePicker** %5, align 8, !dbg !749
  %7 = call i32 @_ZN12SourcePickerI8CSRGraphIi10NodeWeightIiiELb1EEE8PickNextEv(%class.SourcePicker* %6), !dbg !751
  %8 = getelementptr %class.anon, %class.anon* %0, i32 0, i32 1, !dbg !752
  %9 = load %class.CLDelta*, %class.CLDelta** %8, align 8, !dbg !752
  %10 = call i32 @_ZNK7CLDeltaIiE5deltaEv(%class.CLDelta* %9), !dbg !753
  %11 = call %class.pvector @_Z9DeltaStepRK8CSRGraphIi10NodeWeightIiiELb1EEii(%class.CSRGraph* %1, i32 %7, i32 %10), !dbg !754
  store %class.pvector %11, %class.pvector* %3, align 8, !dbg !754
  call void @_ZN7pvectorIiEC1EOS0_(%class.pvector* %4, %class.pvector* %3), !dbg !754
  %12 = load %class.pvector, %class.pvector* %4, align 8, !dbg !755
  ret %class.pvector %12, !dbg !756
}

define linkonce_odr void @_ZN5Timer4StopEv(%class.Timer* %0) #1 !dbg !757 {
  %2 = alloca %"struct.std::chrono::time_point", i64 1, align 8
  %3 = getelementptr %class.Timer, %class.Timer* %0, i32 0, i32 1, !dbg !758
  %4 = call %"struct.std::chrono::time_point" @_ZNSt6chrono3_V212system_clock3nowEv(), !dbg !760
  store %"struct.std::chrono::time_point" %4, %"struct.std::chrono::time_point"* %2, align 8, !dbg !760
  %5 = call %"struct.std::chrono::time_point"* @_ZNSt6chrono10time_pointINS_3_V212system_clockENS_8durationIlSt5ratioILl1ELl1000000000EEEEEaSEOS7_(%"struct.std::chrono::time_point"* %3, %"struct.std::chrono::time_point"* %2), !dbg !761
  ret void, !dbg !762
}

define void @_Z9PrintTimePKcd(i8* %0, double %1) #1 !dbg !763 {
  %3 = call i32 (i8*, ...) @printf(i8* getelementptr inbounds ([14 x i8], [14 x i8]* @str55, i32 0, i32 0), i8* %0, double %1), !dbg !765
  ret void, !dbg !767
}

define linkonce_odr double @_ZNK5Timer7SecondsEv(%class.Timer* %0) #1 !dbg !768 {
  %2 = alloca %"struct.std::chrono::duration.16", i64 1, align 8
  %3 = alloca %"struct.std::chrono::duration", i64 1, align 8
  %4 = getelementptr %class.Timer, %class.Timer* %0, i32 0, i32 1, !dbg !769
  %5 = getelementptr %class.Timer, %class.Timer* %0, i32 0, i32 0, !dbg !771
  %6 = call %"struct.std::chrono::duration" @_ZNSt6chronomiINS_3_V212system_clockENS_8durationIlSt5ratioILl1ELl1000000000EEEES6_EENSt11common_typeIJT0_T1_EE4typeERKNS_10time_pointIT_S8_EERKNSC_ISD_S9_EE(%"struct.std::chrono::time_point"* %4, %"struct.std::chrono::time_point"* %5), !dbg !772
  store %"struct.std::chrono::duration" %6, %"struct.std::chrono::duration"* %3, align 8, !dbg !769
  %7 = call %"struct.std::chrono::duration.16" @_ZNSt6chrono13duration_castINS_8durationIdSt5ratioILl1ELl1EEEElS2_ILl1ELl1000000000EEEENSt9enable_ifIXsr13__is_durationIT_EE5valueES7_E4typeERKNS1_IT0_T1_EE(%"struct.std::chrono::duration"* %3), !dbg !773
  store %"struct.std::chrono::duration.16" %7, %"struct.std::chrono::duration.16"* %2, align 8, !dbg !773
  %8 = call double @_ZNKSt6chrono8durationIdSt5ratioILl1ELl1EEE5countEv(%"struct.std::chrono::duration.16"* %2), !dbg !774
  ret double %8, !dbg !775
}

define linkonce_odr i8 @_ZNK5CLApp11do_analysisEv(%class.CLApp* %0) #1 !dbg !776 {
  %2 = getelementptr %class.CLApp, %class.CLApp* %0, i32 0, i32 1, !dbg !777
  %3 = load i8, i8* %2, align 1, !dbg !777
  ret i8 %3, !dbg !779
}

define linkonce_odr i8 @_ZNK5CLApp9do_verifyEv(%class.CLApp* %0) #1 !dbg !780 {
  %2 = getelementptr %class.CLApp, %class.CLApp* %0, i32 0, i32 4, !dbg !781
  %3 = load i8, i8* %2, align 1, !dbg !781
  ret i8 %3, !dbg !783
}

define void @_Z10PrintLabelPKcS0_(i8* %0, i8* %1) #1 !dbg !784 {
  %3 = call i32 (i8*, ...) @printf(i8* getelementptr inbounds ([11 x i8], [11 x i8]* @str56, i32 0, i32 0), i8* %0, i8* %1), !dbg !785
  ret void, !dbg !787
}

define internal i8 @"_ZZ4mainENK3$_1clERK8CSRGraphIi10NodeWeightIiiELb1EERK7pvectorIiE"(%class.anon.0* %0, %class.CSRGraph* %1, %class.pvector* %2) #1 !dbg !788 {
  %4 = getelementptr %class.anon.0, %class.anon.0* %0, i32 0, i32 0, !dbg !789
  %5 = load %class.SourcePicker*, %class.SourcePicker** %4, align 8, !dbg !789
  %6 = call i32 @_ZN12SourcePickerI8CSRGraphIi10NodeWeightIiiELb1EEE8PickNextEv(%class.SourcePicker* %5), !dbg !791
  %7 = call i8 @_Z12SSSPVerifierRK8CSRGraphIi10NodeWeightIiiELb1EEiRK7pvectorIiE(%class.CSRGraph* %1, i32 %6, %class.pvector* %2), !dbg !792
  ret i8 %7, !dbg !793
}

define linkonce_odr %class.CSRGraph* @_ZNKSt17reference_wrapperIK8CSRGraphIi10NodeWeightIiiELb1EEEcvRS4_Ev(%"class.std::reference_wrapper"* %0) #1 !dbg !794 {
  %2 = call %class.CSRGraph* @_ZNKSt17reference_wrapperIK8CSRGraphIi10NodeWeightIiiELb1EEE3getEv(%"class.std::reference_wrapper"* %0), !dbg !795
  ret %class.CSRGraph* %2, !dbg !797
}

define linkonce_odr %"class.std::reference_wrapper" @_ZSt3refIK8CSRGraphIi10NodeWeightIiiELb1EEESt17reference_wrapperIT_ERS6_(%class.CSRGraph* %0) #1 !dbg !798 {
  %2 = alloca %"class.std::reference_wrapper", i64 1, align 8
  %3 = alloca %"class.std::reference_wrapper", i64 1, align 8
  %4 = alloca %"class.std::reference_wrapper", i64 1, align 8
  call void @_ZNSt17reference_wrapperIK8CSRGraphIi10NodeWeightIiiELb1EEEC1IRS4_vPS4_EEOT_(%"class.std::reference_wrapper"* %3, %class.CSRGraph* %0), !dbg !799
  %5 = load %"class.std::reference_wrapper", %"class.std::reference_wrapper"* %3, align 8, !dbg !799
  store %"class.std::reference_wrapper" %5, %"class.std::reference_wrapper"* %2, align 8, !dbg !799
  call void @_ZNSt17reference_wrapperIK8CSRGraphIi10NodeWeightIiiELb1EEEC1ERKS5_(%"class.std::reference_wrapper"* %4, %"class.std::reference_wrapper"* %2), !dbg !799
  %6 = load %"class.std::reference_wrapper", %"class.std::reference_wrapper"* %4, align 8, !dbg !801
  ret %"class.std::reference_wrapper" %6, !dbg !802
}

define linkonce_odr %class.pvector* @_ZNKSt17reference_wrapperI7pvectorIiEEcvRS1_Ev(%"class.std::reference_wrapper.5"* %0) #1 !dbg !803 {
  %2 = call %class.pvector* @_ZNKSt17reference_wrapperI7pvectorIiEE3getEv(%"class.std::reference_wrapper.5"* %0), !dbg !804
  ret %class.pvector* %2, !dbg !806
}

define linkonce_odr %"class.std::reference_wrapper.5" @_ZSt3refI7pvectorIiEESt17reference_wrapperIT_ERS3_(%class.pvector* %0) #1 !dbg !807 {
  %2 = alloca %"class.std::reference_wrapper.5", i64 1, align 8
  %3 = alloca %"class.std::reference_wrapper.5", i64 1, align 8
  %4 = alloca %"class.std::reference_wrapper.5", i64 1, align 8
  call void @_ZNSt17reference_wrapperI7pvectorIiEEC1IRS1_vPS1_EEOT_(%"class.std::reference_wrapper.5"* %3, %class.pvector* %0), !dbg !808
  %5 = load %"class.std::reference_wrapper.5", %"class.std::reference_wrapper.5"* %3, align 8, !dbg !808
  store %"class.std::reference_wrapper.5" %5, %"class.std::reference_wrapper.5"* %2, align 8, !dbg !808
  call void @_ZNSt17reference_wrapperI7pvectorIiEEC1ERKS2_(%"class.std::reference_wrapper.5"* %4, %"class.std::reference_wrapper.5"* %2), !dbg !808
  %6 = load %"class.std::reference_wrapper.5", %"class.std::reference_wrapper.5"* %4, align 8, !dbg !810
  ret %"class.std::reference_wrapper.5" %6, !dbg !811
}

define internal i64 @"_ZSt8count_ifIPiZ14PrintSSSPStatsRK8CSRGraphIi10NodeWeightIiiELb1EERK7pvectorIiEE3$_0ENSt15iterator_traitsIT_E15difference_typeESD_SD_T0_"(i32* %0, i32* %1, %class.anon.14 %2) #1 !dbg !812 {
  %4 = alloca %class.anon.14, i64 1, align 8
  %5 = alloca %"struct.__gnu_cxx::__ops::_Iter_pred", i64 1, align 8
  %6 = load %class.anon.14, %class.anon.14* %4, align 1, !dbg !814
  %7 = call %"struct.__gnu_cxx::__ops::_Iter_pred" @"_ZN9__gnu_cxx5__ops11__pred_iterIZ14PrintSSSPStatsRK8CSRGraphIi10NodeWeightIiiELb1EERK7pvectorIiEE3$_0EENS0_10_Iter_predIT_EESE_"(%class.anon.14 %6), !dbg !814
  %8 = load %"struct.__gnu_cxx::__ops::_Iter_pred", %"struct.__gnu_cxx::__ops::_Iter_pred"* %5, align 1, !dbg !816
  %9 = call i64 @"_ZSt10__count_ifIPiN9__gnu_cxx5__ops10_Iter_predIZ14PrintSSSPStatsRK8CSRGraphIi10NodeWeightIiiELb1EERK7pvectorIiEE3$_0EEENSt15iterator_traitsIT_E15difference_typeESH_SH_T0_"(i32* %0, i32* %1, %"struct.__gnu_cxx::__ops::_Iter_pred" %8), !dbg !816
  ret i64 %9, !dbg !817
}

define linkonce_odr i32* @_ZNK7pvectorIiE5beginEv(%class.pvector* %0) #1 !dbg !818 {
  %2 = getelementptr %class.pvector, %class.pvector* %0, i32 0, i32 0, !dbg !819
  %3 = load i32*, i32** %2, align 8, !dbg !819
  ret i32* %3, !dbg !821
}

define linkonce_odr i32* @_ZNK7pvectorIiE3endEv(%class.pvector* %0) #1 !dbg !822 {
  %2 = getelementptr %class.pvector, %class.pvector* %0, i32 0, i32 1, !dbg !823
  %3 = load i32*, i32** %2, align 8, !dbg !823
  ret i32* %3, !dbg !825
}

define linkonce_odr void @_ZN6CLBaseC1EiPPcPKc(%class.CLBase* %0, i32 %1, i8** %2, i8* %3) #1 !dbg !826 {
  %5 = alloca [16 x i8], i64 1, align 1, !dbg !827
  %6 = getelementptr %class.CLBase, %class.CLBase* %0, i32 0, i32 0, !dbg !829
  store i32 %1, i32* %6, align 4, !dbg !829
  %7 = getelementptr %class.CLBase, %class.CLBase* %0, i32 0, i32 2, !dbg !829
  store i8** %2, i8*** %7, align 8, !dbg !829
  %8 = getelementptr %class.CLBase, %class.CLBase* %0, i32 0, i32 3, !dbg !829
  store i8* %3, i8** %8, align 8, !dbg !829
  %9 = getelementptr %class.CLBase, %class.CLBase* %0, i32 0, i32 5, !dbg !829
  call void @_ZNSt6vectorIPcSaIS0_EEC1Ev(%"class.std::vector"* %9), !dbg !829
  %10 = getelementptr %class.CLBase, %class.CLBase* %0, i32 0, i32 6, !dbg !829
  store i32 -1, i32* %10, align 4, !dbg !829
  %11 = load i32, i32* %10, align 4, !dbg !829
  store i32 %11, i32* %10, align 4, !dbg !829
  %12 = getelementptr %class.CLBase, %class.CLBase* %0, i32 0, i32 7, !dbg !829
  store i32 16, i32* %12, align 4, !dbg !829
  %13 = load i32, i32* %12, align 4, !dbg !829
  store i32 %13, i32* %12, align 4, !dbg !829
  %14 = getelementptr %class.CLBase, %class.CLBase* %0, i32 0, i32 9, !dbg !829
  store i8 0, i8* %14, align 1, !dbg !829
  %15 = load i8, i8* %14, align 1, !dbg !829
  store i8 %15, i8* %14, align 1, !dbg !829
  %16 = getelementptr %class.CLBase, %class.CLBase* %0, i32 0, i32 10, !dbg !829
  store i8 0, i8* %16, align 1, !dbg !829
  %17 = load i8, i8* %16, align 1, !dbg !829
  store i8 %17, i8* %16, align 1, !dbg !829
  %18 = getelementptr %class.CLBase, %class.CLBase* %0, i32 0, i32 11, !dbg !829
  store i8 0, i8* %18, align 1, !dbg !829
  %19 = load i8, i8* %18, align 1, !dbg !829
  store i8 %19, i8* %18, align 1, !dbg !829
  %20 = getelementptr %class.CLBase, %class.CLBase* %0, i32 0, i32 4, !dbg !830
  %21 = getelementptr [128 x i8], [128 x i8]* %20, i32 0, i32 0, !dbg !830
  %22 = call i8* @strcpy(i8* %21, i8* getelementptr inbounds ([12 x i8], [12 x i8]* @str57, i32 0, i32 0)), !dbg !831
  %23 = getelementptr %class.CLBase, %class.CLBase* %0, i32 0, i32 8, !dbg !832
  %24 = getelementptr [128 x i8], [128 x i8]* %23, i32 0, i32 0, !dbg !832
  %25 = call i8* @strcpy(i8* %24, i8* getelementptr inbounds ([1 x i8], [1 x i8]* @str7, i32 0, i32 0)), !dbg !833
  call void @_ZN6CLBase11AddHelpLineEcPKcS1_S1_(%class.CLBase* %0, i8 104, i8* getelementptr inbounds ([1 x i8], [1 x i8]* @str7, i32 0, i32 0), i8* getelementptr inbounds ([24 x i8], [24 x i8]* @str58, i32 0, i32 0), i8* getelementptr inbounds ([1 x i8], [1 x i8]* @str7, i32 0, i32 0)), !dbg !834
  call void @_ZN6CLBase11AddHelpLineEcPKcS1_S1_(%class.CLBase* %0, i8 102, i8* getelementptr inbounds ([5 x i8], [5 x i8]* @str59, i32 0, i32 0), i8* getelementptr inbounds ([21 x i8], [21 x i8]* @str60, i32 0, i32 0), i8* getelementptr inbounds ([1 x i8], [1 x i8]* @str7, i32 0, i32 0)), !dbg !835
  call void @_ZN6CLBase11AddHelpLineEcPKcS1_S1_(%class.CLBase* %0, i8 115, i8* getelementptr inbounds ([1 x i8], [1 x i8]* @str7, i32 0, i32 0), i8* getelementptr inbounds ([27 x i8], [27 x i8]* @str61, i32 0, i32 0), i8* getelementptr inbounds ([6 x i8], [6 x i8]* @str21, i32 0, i32 0)), !dbg !836
  call void @_ZN6CLBase11AddHelpLineEcPKcS1_S1_(%class.CLBase* %0, i8 103, i8* getelementptr inbounds ([6 x i8], [6 x i8]* @str62, i32 0, i32 0), i8* getelementptr inbounds ([33 x i8], [33 x i8]* @str63, i32 0, i32 0), i8* getelementptr inbounds ([1 x i8], [1 x i8]* @str7, i32 0, i32 0)), !dbg !837
  call void @_ZN6CLBase11AddHelpLineEcPKcS1_S1_(%class.CLBase* %0, i8 117, i8* getelementptr inbounds ([6 x i8], [6 x i8]* @str62, i32 0, i32 0), i8* getelementptr inbounds ([38 x i8], [38 x i8]* @str64, i32 0, i32 0), i8* getelementptr inbounds ([1 x i8], [1 x i8]* @str7, i32 0, i32 0)), !dbg !838
  %26 = getelementptr [16 x i8], [16 x i8]* %5, i32 0, i32 0, !dbg !839
  %27 = load i32, i32* %12, align 4, !dbg !840
  %28 = call i32 (i8*, i8*, ...) @sprintf(i8* %26, i8* getelementptr inbounds ([3 x i8], [3 x i8]* @str3, i32 0, i32 0), i32 %27), !dbg !841
  call void @_ZN6CLBase11AddHelpLineEcPKcS1_S1_(%class.CLBase* %0, i8 107, i8* getelementptr inbounds ([7 x i8], [7 x i8]* @str65, i32 0, i32 0), i8* getelementptr inbounds ([35 x i8], [35 x i8]* @str66, i32 0, i32 0), i8* %26), !dbg !842
  call void @_ZN6CLBase11AddHelpLineEcPKcS1_S1_(%class.CLBase* %0, i8 109, i8* getelementptr inbounds ([1 x i8], [1 x i8]* @str7, i32 0, i32 0), i8* getelementptr inbounds ([43 x i8], [43 x i8]* @str67, i32 0, i32 0), i8* getelementptr inbounds ([6 x i8], [6 x i8]* @str21, i32 0, i32 0)), !dbg !843
  ret void, !dbg !844
}

define linkonce_odr void @_ZNSt6vectorIPcSaIS0_EE9push_backERKS0_(%"class.std::vector"* %0, i8** %1) #1 !dbg !845 {
  %3 = alloca %"class.__gnu_cxx::__normal_iterator", i64 1, align 8
  %4 = alloca %"class.__gnu_cxx::__normal_iterator", i64 1, align 8
  %5 = getelementptr %"class.std::vector", %"class.std::vector"* %0, i32 0, i32 0, !dbg !847
  %6 = getelementptr %"struct.std::_Vector_base", %"struct.std::_Vector_base"* %5, i32 0, i32 0, !dbg !849
  %7 = getelementptr %"struct.std::_Vector_base<char *, std::allocator<char *>>::_Vector_impl", %"struct.std::_Vector_base<char *, std::allocator<char *>>::_Vector_impl"* %6, i32 0, i32 0, !dbg !847
  %8 = getelementptr %"struct.std::_Vector_base<char *, std::allocator<char *>>::_Vector_impl_data", %"struct.std::_Vector_base<char *, std::allocator<char *>>::_Vector_impl_data"* %7, i32 0, i32 1, !dbg !850
  %9 = load i8**, i8*** %8, align 8, !dbg !847
  %10 = getelementptr %"struct.std::_Vector_base<char *, std::allocator<char *>>::_Vector_impl_data", %"struct.std::_Vector_base<char *, std::allocator<char *>>::_Vector_impl_data"* %7, i32 0, i32 2, !dbg !851
  %11 = load i8**, i8*** %10, align 8, !dbg !852
  %12 = icmp ne i8** %9, %11, !dbg !853
  br i1 %12, label %13, label %20, !dbg !854

13:                                               ; preds = %2
  %14 = bitcast %"struct.std::_Vector_base<char *, std::allocator<char *>>::_Vector_impl"* %6 to %"class.std::allocator"*, !dbg !855
  %15 = icmp ne %"class.std::allocator"* %14, null, !dbg !855
  %16 = select i1 %15, %"class.std::allocator"* %14, %"class.std::allocator"* null, !dbg !855
  %17 = load i8**, i8*** %8, align 8, !dbg !856
  call void @_ZNSt16allocator_traitsISaIPcEE9constructIS0_JRKS0_EEEvRS1_PT_DpOT0_(%"class.std::allocator"* %16, i8** %17, i8** %1), !dbg !857
  %18 = load i8**, i8*** %8, align 8, !dbg !858
  %19 = getelementptr i8*, i8** %18, i32 1, !dbg !858
  store i8** %19, i8*** %8, align 8, !dbg !858
  br label %23, !dbg !854

20:                                               ; preds = %2
  %21 = call %"class.__gnu_cxx::__normal_iterator" @_ZNSt6vectorIPcSaIS0_EE3endEv(%"class.std::vector"* %0), !dbg !859
  store %"class.__gnu_cxx::__normal_iterator" %21, %"class.__gnu_cxx::__normal_iterator"* %3, align 8, !dbg !859
  call void @_ZN9__gnu_cxx17__normal_iteratorIPPcSt6vectorIS1_SaIS1_EEEC1EOS6_(%"class.__gnu_cxx::__normal_iterator"* %4, %"class.__gnu_cxx::__normal_iterator"* %3), !dbg !859
  %22 = load %"class.__gnu_cxx::__normal_iterator", %"class.__gnu_cxx::__normal_iterator"* %4, align 8, !dbg !860
  call void @_ZNSt6vectorIPcSaIS0_EE17_M_realloc_insertIJRKS0_EEEvN9__gnu_cxx17__normal_iteratorIPS0_S2_EEDpOT_(%"class.std::vector"* %0, %"class.__gnu_cxx::__normal_iterator" %22, i8** %1), !dbg !860
  br label %23, !dbg !854

23:                                               ; preds = %13, %20
  ret void, !dbg !861
}

declare i64 @atol(i8*) #1

define linkonce_odr void @_ZN5CLApp9HandleArgEaPc(%class.CLApp* %0, i8 %1, i8* %2) #1 !dbg !862 {
  %4 = sext i8 %1 to i32, !dbg !863
  switch i32 %4, label %15 [
    i32 97, label %5
    i32 110, label %7
    i32 114, label %10
    i32 118, label %13
  ], !dbg !865

5:                                                ; preds = %3
  %6 = getelementptr %class.CLApp, %class.CLApp* %0, i32 0, i32 1, !dbg !866
  store i8 1, i8* %6, align 1, !dbg !867
  br label %18, !dbg !868

7:                                                ; preds = %3
  %8 = getelementptr %class.CLApp, %class.CLApp* %0, i32 0, i32 2, !dbg !869
  %9 = call i32 @atoi(i8* %2), !dbg !870
  store i32 %9, i32* %8, align 4, !dbg !871
  br label %18, !dbg !872

10:                                               ; preds = %3
  %11 = getelementptr %class.CLApp, %class.CLApp* %0, i32 0, i32 3, !dbg !873
  %12 = call i64 @atol(i8* %2), !dbg !874
  store i64 %12, i64* %11, align 8, !dbg !875
  br label %18, !dbg !876

13:                                               ; preds = %3
  %14 = getelementptr %class.CLApp, %class.CLApp* %0, i32 0, i32 4, !dbg !877
  store i8 1, i8* %14, align 1, !dbg !878
  br label %18, !dbg !879

15:                                               ; preds = %3
  %16 = getelementptr %class.CLApp, %class.CLApp* %0, i32 0, i32 0, !dbg !880
  %17 = bitcast %class.CLBase.base* %16 to %class.CLBase*, !dbg !880
  call void @_ZN6CLBase9HandleArgEaPc(%class.CLBase* %17, i8 %1, i8* %2), !dbg !880
  br label %18, !dbg !865

18:                                               ; preds = %15, %5, %7, %10, %13
  ret void, !dbg !881
}

define available_externally void @_ZNSt7__cxx1112basic_stringIcSt11char_traitsIcESaIcEEC1ERKS4_(%"class.std::__cxx11::basic_string"* %0, %"class.std::__cxx11::basic_string"* %1) #1 !dbg !882 {
  %3 = alloca %"class.std::allocator.2", i64 1, align 8
  %4 = alloca %"struct.std::__cxx11::basic_string<char>::_Alloc_hider", i64 1, align 8
  %5 = call i8* @_ZNSt7__cxx1112basic_stringIcSt11char_traitsIcESaIcEE13_M_local_dataEv(%"class.std::__cxx11::basic_string"* %0), !dbg !883
  %6 = call %"class.std::allocator.2"* @_ZNKSt7__cxx1112basic_stringIcSt11char_traitsIcESaIcEE16_M_get_allocatorEv(%"class.std::__cxx11::basic_string"* %1), !dbg !885
  %7 = call %"class.std::allocator.2" @_ZN9__gnu_cxx14__alloc_traitsISaIcEcE17_S_select_on_copyERKS1_(%"class.std::allocator.2"* %6), !dbg !886
  store %"class.std::allocator.2" %7, %"class.std::allocator.2"* %3, align 1, !dbg !886
  call void @_ZNSt7__cxx1112basic_stringIcSt11char_traitsIcESaIcEE12_Alloc_hiderC1EPcOS3_(%"struct.std::__cxx11::basic_string<char>::_Alloc_hider"* %4, i8* %5, %"class.std::allocator.2"* %3), !dbg !887
  %8 = getelementptr %"class.std::__cxx11::basic_string", %"class.std::__cxx11::basic_string"* %0, i32 0, i32 0, !dbg !888
  %9 = load %"struct.std::__cxx11::basic_string<char>::_Alloc_hider", %"struct.std::__cxx11::basic_string<char>::_Alloc_hider"* %4, align 8, !dbg !888
  store %"struct.std::__cxx11::basic_string<char>::_Alloc_hider" %9, %"struct.std::__cxx11::basic_string<char>::_Alloc_hider"* %8, align 8, !dbg !888
  %10 = call i8* @_ZNKSt7__cxx1112basic_stringIcSt11char_traitsIcESaIcEE7_M_dataEv(%"class.std::__cxx11::basic_string"* %1), !dbg !889
  %11 = call i8* @_ZNKSt7__cxx1112basic_stringIcSt11char_traitsIcESaIcEE7_M_dataEv(%"class.std::__cxx11::basic_string"* %1), !dbg !890
  %12 = call i64 @_ZNKSt7__cxx1112basic_stringIcSt11char_traitsIcESaIcEE6lengthEv(%"class.std::__cxx11::basic_string"* %1), !dbg !891
  %13 = getelementptr i8, i8* %11, i64 %12, !dbg !892
  call void @_ZNSt7__cxx1112basic_stringIcSt11char_traitsIcESaIcEE12_M_constructIPcEEvT_S7_(%"class.std::__cxx11::basic_string"* %0, i8* %10, i8* %13), !dbg !893
  ret void, !dbg !894
}

define available_externally void @_ZNSt7__cxx1112basic_stringIcSt11char_traitsIcESaIcEE12_Alloc_hiderC1EPcOS3_(%"struct.std::__cxx11::basic_string<char>::_Alloc_hider"* %0, i8* %1, %"class.std::allocator.2"* %2) #1 !dbg !895 {
  %4 = getelementptr %"struct.std::__cxx11::basic_string<char>::_Alloc_hider", %"struct.std::__cxx11::basic_string<char>::_Alloc_hider"* %0, i32 0, i32 0, !dbg !896
  store i8* %1, i8** %4, align 8, !dbg !896
  ret void, !dbg !898
}

define available_externally i8* @_ZNSt7__cxx1112basic_stringIcSt11char_traitsIcESaIcEE13_M_local_dataEv(%"class.std::__cxx11::basic_string"* %0) #1 !dbg !899 {
  %2 = getelementptr %"class.std::__cxx11::basic_string", %"class.std::__cxx11::basic_string"* %0, i32 0, i32 2, !dbg !900
  %3 = getelementptr %union.anon, %union.anon* %2, i32 0, i32 0, !dbg !900
  %4 = bitcast i64* %3 to [16 x i8]*, !dbg !900
  %5 = getelementptr [16 x i8], [16 x i8]* %4, i32 0, i32 0, !dbg !900
  ret i8* %5, !dbg !902
}

define available_externally %"class.std::allocator.2"* @_ZNSt7__cxx1112basic_stringIcSt11char_traitsIcESaIcEE16_M_get_allocatorEv(%"class.std::__cxx11::basic_string"* %0) #1 !dbg !903 {
  %2 = getelementptr %"class.std::__cxx11::basic_string", %"class.std::__cxx11::basic_string"* %0, i32 0, i32 0, !dbg !904
  %3 = bitcast %"struct.std::__cxx11::basic_string<char>::_Alloc_hider"* %2 to %"class.std::allocator.2"*, !dbg !904
  %4 = icmp ne %"class.std::allocator.2"* %3, null, !dbg !904
  %5 = select i1 %4, %"class.std::allocator.2"* %3, %"class.std::allocator.2"* null, !dbg !904
  ret %"class.std::allocator.2"* %5, !dbg !906
}

define available_externally i8 @_ZNKSt7__cxx1112basic_stringIcSt11char_traitsIcESaIcEE11_M_is_localEv(%"class.std::__cxx11::basic_string"* %0) #1 !dbg !907 {
  %2 = call i8* @_ZNKSt7__cxx1112basic_stringIcSt11char_traitsIcESaIcEE7_M_dataEv(%"class.std::__cxx11::basic_string"* %0), !dbg !908
  %3 = call i8* @_ZNKSt7__cxx1112basic_stringIcSt11char_traitsIcESaIcEE13_M_local_dataEv(%"class.std::__cxx11::basic_string"* %0), !dbg !910
  %4 = icmp eq i8* %2, %3, !dbg !911
  %5 = zext i1 %4 to i8, !dbg !911
  ret i8 %5, !dbg !912
}

define linkonce_odr i8* @_ZNSt11char_traitsIcE4copyEPcPKcm(i8* %0, i8* %1, i64 %2) #1 !dbg !913 {
  %4 = icmp eq i64 %2, 0, !dbg !914
  br i1 %4, label %5, label %6

5:                                                ; preds = %3
  br label %7

6:                                                ; preds = %3
  call void @llvm.memcpy.p0i8.p0i8.i64(i8* %0, i8* %1, i64 %2, i1 false), !dbg !916
  br label %7

7:                                                ; preds = %5, %6
  ret i8* %0, !dbg !917
}

define available_externally void @_ZNSt7__cxx1112basic_stringIcSt11char_traitsIcESaIcEE7_M_dataEPc(%"class.std::__cxx11::basic_string"* %0, i8* %1) #1 !dbg !918 {
  %3 = getelementptr %"class.std::__cxx11::basic_string", %"class.std::__cxx11::basic_string"* %0, i32 0, i32 0, !dbg !919
  %4 = getelementptr %"struct.std::__cxx11::basic_string<char>::_Alloc_hider", %"struct.std::__cxx11::basic_string<char>::_Alloc_hider"* %3, i32 0, i32 0, !dbg !921
  store i8* %1, i8** %4, align 8, !dbg !922
  ret void, !dbg !923
}

define available_externally i8* @_ZNKSt7__cxx1112basic_stringIcSt11char_traitsIcESaIcEE7_M_dataEv(%"class.std::__cxx11::basic_string"* %0) #1 !dbg !924 {
  %2 = getelementptr %"class.std::__cxx11::basic_string", %"class.std::__cxx11::basic_string"* %0, i32 0, i32 0, !dbg !925
  %3 = getelementptr %"struct.std::__cxx11::basic_string<char>::_Alloc_hider", %"struct.std::__cxx11::basic_string<char>::_Alloc_hider"* %2, i32 0, i32 0, !dbg !927
  %4 = load i8*, i8** %3, align 8, !dbg !925
  ret i8* %4, !dbg !928
}

define available_externally void @_ZNSt7__cxx1112basic_stringIcSt11char_traitsIcESaIcEE11_M_capacityEm(%"class.std::__cxx11::basic_string"* %0, i64 %1) #1 !dbg !929 {
  %3 = getelementptr %"class.std::__cxx11::basic_string", %"class.std::__cxx11::basic_string"* %0, i32 0, i32 2, !dbg !930
  %4 = getelementptr %union.anon, %union.anon* %3, i32 0, i32 0, !dbg !930
  store i64 %1, i64* %4, align 8, !dbg !932
  ret void, !dbg !933
}

define available_externally void @_ZNSt7__cxx1112basic_stringIcSt11char_traitsIcESaIcEE9_M_lengthEm(%"class.std::__cxx11::basic_string"* %0, i64 %1) #1 !dbg !934 {
  %3 = getelementptr %"class.std::__cxx11::basic_string", %"class.std::__cxx11::basic_string"* %0, i32 0, i32 1, !dbg !935
  store i64 %1, i64* %3, align 8, !dbg !937
  ret void, !dbg !938
}

define available_externally i64 @_ZNKSt7__cxx1112basic_stringIcSt11char_traitsIcESaIcEE6lengthEv(%"class.std::__cxx11::basic_string"* %0) #1 !dbg !939 {
  %2 = getelementptr %"class.std::__cxx11::basic_string", %"class.std::__cxx11::basic_string"* %0, i32 0, i32 1, !dbg !940
  %3 = load i64, i64* %2, align 8, !dbg !940
  ret i64 %3, !dbg !942
}

define available_externally void @_ZNSt7__cxx1112basic_stringIcSt11char_traitsIcESaIcEE13_M_set_lengthEm(%"class.std::__cxx11::basic_string"* %0, i64 %1) #1 !dbg !943 {
  %3 = alloca i8, i64 1, align 1
  store i8 undef, i8* %3, align 1
  call void @_ZNSt7__cxx1112basic_stringIcSt11char_traitsIcESaIcEE9_M_lengthEm(%"class.std::__cxx11::basic_string"* %0, i64 %1), !dbg !944
  %4 = call i8* @_ZNKSt7__cxx1112basic_stringIcSt11char_traitsIcESaIcEE7_M_dataEv(%"class.std::__cxx11::basic_string"* %0), !dbg !946
  %5 = getelementptr i8, i8* %4, i64 %1, !dbg !946
  store i8 0, i8* %3, align 1, !dbg !947
  call void @_ZNSt11char_traitsIcE6assignERcRKc(i8* %5, i8* %3), !dbg !948
  ret void, !dbg !949
}

define available_externally void @_ZNSt7__cxx1112basic_stringIcSt11char_traitsIcESaIcEE12_Alloc_hiderC1EPcRKS3_(%"struct.std::__cxx11::basic_string<char>::_Alloc_hider"* %0, i8* %1, %"class.std::allocator.2"* %2) #1 !dbg !950 {
  %4 = getelementptr %"struct.std::__cxx11::basic_string<char>::_Alloc_hider", %"struct.std::__cxx11::basic_string<char>::_Alloc_hider"* %0, i32 0, i32 0, !dbg !951
  store i8* %1, i8** %4, align 8, !dbg !951
  ret void, !dbg !953
}

define linkonce_odr void @_ZNSt7__cxx1112basic_stringIcSt11char_traitsIcESaIcEE12_M_constructIPKcEEvT_S8_(%"class.std::__cxx11::basic_string"* %0, i8* %1, i8* %2) #1 !dbg !954 {
  %4 = alloca %"struct.std::__false_type", i64 1, align 8
  %5 = alloca %"struct.std::__false_type", i64 1, align 8
  %6 = bitcast %"struct.std::__false_type"* %4 to i8*, !dbg !955
  call void @llvm.memset.p0i8.i64(i8* %6, i8 0, i64 1, i1 false), !dbg !955
  %7 = load %"struct.std::__false_type", %"struct.std::__false_type"* %5, align 1, !dbg !957
  call void @_ZNSt7__cxx1112basic_stringIcSt11char_traitsIcESaIcEE16_M_construct_auxIPKcEEvT_S8_St12__false_type(%"class.std::__cxx11::basic_string"* %0, i8* %1, i8* %2, %"struct.std::__false_type" %7), !dbg !957
  ret void, !dbg !958
}

define linkonce_odr i64 @_ZNSt11char_traitsIcE6lengthEPKc(i8* %0) #1 !dbg !959 {
  %2 = call i64 @strlen(i8* %0), !dbg !960
  ret i64 %2, !dbg !962
}

define linkonce_odr void @_ZN9__gnu_cxx13new_allocatorIcEC1Ev(%"class.__gnu_cxx::new_allocator.3"* %0) #1 !dbg !963 {
  ret void, !dbg !965
}

declare i32 @_ZNKSt7__cxx1112basic_stringIcSt11char_traitsIcESaIcEE7compareEPKc(%"class.std::__cxx11::basic_string"*, i8*) #1

declare i64 @_ZNKSt7__cxx1112basic_stringIcSt11char_traitsIcESaIcEE5rfindEcm(%"class.std::__cxx11::basic_string"*, i8, i64) #1

define available_externally i8* @_ZNKSt7__cxx1112basic_stringIcSt11char_traitsIcESaIcEE5c_strEv(%"class.std::__cxx11::basic_string"* %0) #1 !dbg !967 {
  %2 = call i8* @_ZNKSt7__cxx1112basic_stringIcSt11char_traitsIcESaIcEE7_M_dataEv(%"class.std::__cxx11::basic_string"* %0), !dbg !968
  ret i8* %2, !dbg !970
}

define available_externally %"class.std::__cxx11::basic_string" @_ZNKSt7__cxx1112basic_stringIcSt11char_traitsIcESaIcEE6substrEmm(%"class.std::__cxx11::basic_string"* %0, i64 %1, i64 %2) #1 !dbg !971 {
  %4 = alloca %"class.std::__cxx11::basic_string", i64 1, align 8
  %5 = alloca %"class.std::__cxx11::basic_string", i64 1, align 8
  %6 = alloca %"class.std::__cxx11::basic_string", i64 1, align 8
  %7 = call i64 @_ZNKSt7__cxx1112basic_stringIcSt11char_traitsIcESaIcEE8_M_checkEmPKc(%"class.std::__cxx11::basic_string"* %0, i64 %1, i8* getelementptr inbounds ([21 x i8], [21 x i8]* @str68, i32 0, i32 0)), !dbg !972
  call void @_ZNSt7__cxx1112basic_stringIcSt11char_traitsIcESaIcEEC1ERKS4_mm(%"class.std::__cxx11::basic_string"* %5, %"class.std::__cxx11::basic_string"* %0, i64 %7, i64 %2), !dbg !974
  %8 = load %"class.std::__cxx11::basic_string", %"class.std::__cxx11::basic_string"* %5, align 8, !dbg !974
  store %"class.std::__cxx11::basic_string" %8, %"class.std::__cxx11::basic_string"* %4, align 8, !dbg !974
  call void @_ZNSt7__cxx1112basic_stringIcSt11char_traitsIcESaIcEEC1EOS4_(%"class.std::__cxx11::basic_string"* %6, %"class.std::__cxx11::basic_string"* %4), !dbg !974
  %9 = load %"class.std::__cxx11::basic_string", %"class.std::__cxx11::basic_string"* %6, align 8, !dbg !975
  ret %"class.std::__cxx11::basic_string" %9, !dbg !976
}

define linkonce_odr void @_ZN7pvectorIlEC1Em(%class.pvector.15* %0, i64 %1) #1 !dbg !977 {
  %3 = getelementptr %class.pvector.15, %class.pvector.15* %0, i32 0, i32 0, !dbg !978
  %4 = mul i64 %1, 8, !dbg !980
  %5 = call noalias noundef i8* @malloc(i64 %4), !dbg !980
  %6 = bitcast i8* %5 to i64*, !dbg !980
  store i64* %6, i64** %3, align 8, !dbg !981
  %7 = getelementptr %class.pvector.15, %class.pvector.15* %0, i32 0, i32 1, !dbg !982
  %8 = load i64*, i64** %3, align 8, !dbg !983
  %9 = getelementptr i64, i64* %8, i64 %1, !dbg !984
  store i64* %9, i64** %7, align 8, !dbg !985
  %10 = getelementptr %class.pvector.15, %class.pvector.15* %0, i32 0, i32 2, !dbg !986
  %11 = load i64*, i64** %7, align 8, !dbg !987
  store i64* %11, i64** %10, align 8, !dbg !988
  ret void, !dbg !989
}

define linkonce_odr void @_ZN10NodeWeightIiiEC1Ev(%struct.NodeWeight* %0) #1 !dbg !990 {
  ret void, !dbg !991
}

define linkonce_odr i64* @_ZNK7pvectorIlE4dataEv(%class.pvector.15* %0) #1 !dbg !993 {
  %2 = getelementptr %class.pvector.15, %class.pvector.15* %0, i32 0, i32 0, !dbg !994
  %3 = load i64*, i64** %2, align 8, !dbg !994
  ret i64* %3, !dbg !996
}

define linkonce_odr %struct.NodeWeight** @_ZN8CSRGraphIi10NodeWeightIiiELb1EE8GenIndexERK7pvectorIlEPS1_(%class.pvector.15* %0, %struct.NodeWeight* %1) #1 !dbg !997 {
  %3 = call i64 @_ZNK7pvectorIlE4sizeEv(%class.pvector.15* %0), !dbg !998
  %4 = trunc i64 %3 to i32, !dbg !1000
  %5 = sext i32 %4 to i64, !dbg !1001
  %6 = mul i64 %5, 8, !dbg !1001
  %7 = call noalias noundef i8* @malloc(i64 %6), !dbg !1001
  %8 = bitcast i8* %7 to %struct.NodeWeight**, !dbg !1001
  br label %9, !dbg !1002

9:                                                ; preds = %12, %2
  %10 = phi i64 [ 0, %2 ], [ %19, %12 ]
  %11 = icmp slt i64 %10, %5, !dbg !1002
  br i1 %11, label %12, label %20, !dbg !1002

12:                                               ; preds = %9
  %13 = trunc i64 %10 to i32, !dbg !1002
  %14 = getelementptr %struct.NodeWeight*, %struct.NodeWeight** %8, i64 %10, !dbg !1003
  %15 = sext i32 %13 to i64, !dbg !1004
  %16 = call i64* @_ZNK7pvectorIlEixEm(%class.pvector.15* %0, i64 %15), !dbg !1005
  %17 = load i64, i64* %16, align 8, !dbg !1005
  %18 = getelementptr %struct.NodeWeight, %struct.NodeWeight* %1, i64 %17, !dbg !1006
  store %struct.NodeWeight* %18, %struct.NodeWeight** %14, align 8, !dbg !1007
  %19 = add i64 %10, 1, !dbg !1002
  br label %9, !dbg !1002

20:                                               ; preds = %9
  ret %struct.NodeWeight** %8, !dbg !1008
}

define linkonce_odr void @_ZN8CSRGraphIi10NodeWeightIiiELb1EEC1ElPPS1_S3_S4_S3_(%class.CSRGraph* %0, i64 %1, %struct.NodeWeight** %2, %struct.NodeWeight* %3, %struct.NodeWeight** %4, %struct.NodeWeight* %5) #1 !dbg !1009 {
  %7 = getelementptr %class.CSRGraph, %class.CSRGraph* %0, i32 0, i32 0, !dbg !1010
  store i8 1, i8* %7, align 1, !dbg !1010
  %8 = getelementptr %class.CSRGraph, %class.CSRGraph* %0, i32 0, i32 2, !dbg !1010
  store i64 %1, i64* %8, align 8, !dbg !1010
  %9 = getelementptr %class.CSRGraph, %class.CSRGraph* %0, i32 0, i32 4, !dbg !1010
  store %struct.NodeWeight** %2, %struct.NodeWeight*** %9, align 8, !dbg !1010
  %10 = getelementptr %class.CSRGraph, %class.CSRGraph* %0, i32 0, i32 5, !dbg !1010
  store %struct.NodeWeight* %3, %struct.NodeWeight** %10, align 8, !dbg !1010
  %11 = getelementptr %class.CSRGraph, %class.CSRGraph* %0, i32 0, i32 6, !dbg !1010
  store %struct.NodeWeight** %4, %struct.NodeWeight*** %11, align 8, !dbg !1010
  %12 = getelementptr %class.CSRGraph, %class.CSRGraph* %0, i32 0, i32 7, !dbg !1010
  store %struct.NodeWeight* %5, %struct.NodeWeight** %12, align 8, !dbg !1010
  %13 = getelementptr %class.CSRGraph, %class.CSRGraph* %0, i32 0, i32 3, !dbg !1012
  %14 = load %struct.NodeWeight**, %struct.NodeWeight*** %9, align 8, !dbg !1013
  %15 = load i64, i64* %8, align 8, !dbg !1014
  %16 = getelementptr %struct.NodeWeight*, %struct.NodeWeight** %14, i64 %15, !dbg !1013
  %17 = load %struct.NodeWeight*, %struct.NodeWeight** %16, align 8, !dbg !1013
  %18 = load %struct.NodeWeight*, %struct.NodeWeight** %14, align 8, !dbg !1015
  %19 = ptrtoint %struct.NodeWeight* %17 to i64, !dbg !1016
  %20 = ptrtoint %struct.NodeWeight* %18 to i64, !dbg !1016
  %21 = sub i64 %19, %20, !dbg !1016
  %22 = sdiv i64 %21, 8, !dbg !1016
  store i64 %22, i64* %13, align 8, !dbg !1017
  ret void, !dbg !1018
}

define linkonce_odr void @_ZN8CSRGraphIi10NodeWeightIiiELb1EEC1ElPPS1_S3_(%class.CSRGraph* %0, i64 %1, %struct.NodeWeight** %2, %struct.NodeWeight* %3) #1 !dbg !1019 {
  %5 = getelementptr %class.CSRGraph, %class.CSRGraph* %0, i32 0, i32 0, !dbg !1020
  store i8 0, i8* %5, align 1, !dbg !1020
  %6 = getelementptr %class.CSRGraph, %class.CSRGraph* %0, i32 0, i32 2, !dbg !1020
  store i64 %1, i64* %6, align 8, !dbg !1020
  %7 = getelementptr %class.CSRGraph, %class.CSRGraph* %0, i32 0, i32 4, !dbg !1020
  store %struct.NodeWeight** %2, %struct.NodeWeight*** %7, align 8, !dbg !1020
  %8 = getelementptr %class.CSRGraph, %class.CSRGraph* %0, i32 0, i32 5, !dbg !1020
  store %struct.NodeWeight* %3, %struct.NodeWeight** %8, align 8, !dbg !1020
  %9 = getelementptr %class.CSRGraph, %class.CSRGraph* %0, i32 0, i32 6, !dbg !1020
  store %struct.NodeWeight** %2, %struct.NodeWeight*** %9, align 8, !dbg !1020
  %10 = getelementptr %class.CSRGraph, %class.CSRGraph* %0, i32 0, i32 7, !dbg !1020
  store %struct.NodeWeight* %3, %struct.NodeWeight** %10, align 8, !dbg !1020
  %11 = getelementptr %class.CSRGraph, %class.CSRGraph* %0, i32 0, i32 3, !dbg !1022
  %12 = load %struct.NodeWeight**, %struct.NodeWeight*** %7, align 8, !dbg !1023
  %13 = load i64, i64* %6, align 8, !dbg !1024
  %14 = getelementptr %struct.NodeWeight*, %struct.NodeWeight** %12, i64 %13, !dbg !1023
  %15 = load %struct.NodeWeight*, %struct.NodeWeight** %14, align 8, !dbg !1023
  %16 = load %struct.NodeWeight*, %struct.NodeWeight** %12, align 8, !dbg !1025
  %17 = ptrtoint %struct.NodeWeight* %15 to i64, !dbg !1026
  %18 = ptrtoint %struct.NodeWeight* %16 to i64, !dbg !1026
  %19 = sub i64 %17, %18, !dbg !1026
  %20 = sdiv i64 %19, 8, !dbg !1026
  %21 = sdiv i64 %20, 2, !dbg !1027
  store i64 %21, i64* %11, align 8, !dbg !1028
  ret void, !dbg !1029
}

define linkonce_odr void @_ZN7pvectorI8EdgePairIi10NodeWeightIiiEEE16ReleaseResourcesEv(%class.pvector.1* %0) #1 !dbg !1030 {
  %2 = getelementptr %class.pvector.1, %class.pvector.1* %0, i32 0, i32 0, !dbg !1031
  %3 = load %struct.EdgePair*, %struct.EdgePair** %2, align 8, !dbg !1031
  %4 = icmp ne %struct.EdgePair* %3, null, !dbg !1033
  br i1 %4, label %5, label %8, !dbg !1034

5:                                                ; preds = %1
  %6 = load %struct.EdgePair*, %struct.EdgePair** %2, align 8, !dbg !1035
  %7 = bitcast %struct.EdgePair* %6 to i8*, !dbg !1036
  call void @free(i8* %7), !dbg !1036
  br label %8, !dbg !1034

8:                                                ; preds = %5, %1
  ret void, !dbg !1037
}

define linkonce_odr %class.pvector.1 @_ZN6ReaderIi10NodeWeightIiiEiLb1EE8ReadInELEP8_IO_FILE(%class.Reader* %0, %struct._IO_FILE* %1) #1 !dbg !1038 {
  %3 = alloca %class.pvector.1, i64 1, align 8
  %4 = alloca %struct.EdgePair, i64 1, align 8
  %5 = alloca %struct.NodeWeight, i64 1, align 8
  %6 = alloca %struct.NodeWeight, i64 1, align 8
  %7 = alloca %struct.NodeWeight, i64 1, align 8
  %8 = alloca %struct.EdgePair, i64 1, align 8
  %9 = alloca %struct.EdgePair, i64 1, align 8
  %10 = alloca i32, i64 1, align 4, !dbg !1039
  store i32 undef, i32* %10, align 4, !dbg !1039
  %11 = alloca i32, i64 1, align 4, !dbg !1039
  store i32 undef, i32* %11, align 4, !dbg !1039
  %12 = alloca %class.pvector.1, i64 1, align 8, !dbg !1041
  call void @_ZN7pvectorI8EdgePairIi10NodeWeightIiiEEEC1Ev(%class.pvector.1* %12), !dbg !1042
  br label %13, !dbg !1043

13:                                               ; preds = %16, %2
  %14 = call i32 (%struct._IO_FILE*, i8*, ...) @__isoc99_fscanf(%struct._IO_FILE* %1, i8* getelementptr inbounds ([7 x i8], [7 x i8]* @str69, i32 0, i32 0), i32* %11, i32* %10), !dbg !1044
  %15 = icmp ne i32 %14, -1, !dbg !1045
  br i1 %15, label %16, label %23, !dbg !1046

16:                                               ; preds = %13
  %17 = load i32, i32* %11, align 4, !dbg !1047
  %18 = load i32, i32* %10, align 4, !dbg !1048
  call void @_ZN10NodeWeightIiiEC1Ei(%struct.NodeWeight* %6, i32 %18), !dbg !1048
  %19 = load %struct.NodeWeight, %struct.NodeWeight* %6, align 4, !dbg !1048
  store %struct.NodeWeight %19, %struct.NodeWeight* %5, align 4, !dbg !1048
  call void @_ZN10NodeWeightIiiEC1EOS0_(%struct.NodeWeight* %7, %struct.NodeWeight* %5), !dbg !1048
  %20 = load %struct.NodeWeight, %struct.NodeWeight* %7, align 4, !dbg !1049
  call void @_ZN8EdgePairIi10NodeWeightIiiEEC1EiS1_(%struct.EdgePair* %8, i32 %17, %struct.NodeWeight %20), !dbg !1049
  %21 = load %struct.EdgePair, %struct.EdgePair* %8, align 4, !dbg !1049
  store %struct.EdgePair %21, %struct.EdgePair* %4, align 4, !dbg !1049
  call void @_ZN8EdgePairIi10NodeWeightIiiEEC1EOS2_(%struct.EdgePair* %9, %struct.EdgePair* %4), !dbg !1049
  %22 = load %struct.EdgePair, %struct.EdgePair* %9, align 4, !dbg !1050
  call void @_ZN7pvectorI8EdgePairIi10NodeWeightIiiEEE9push_backES3_(%class.pvector.1* %12, %struct.EdgePair %22), !dbg !1050
  br label %13, !dbg !1046

23:                                               ; preds = %13
  call void @_ZN7pvectorI8EdgePairIi10NodeWeightIiiEEEC1EOS4_(%class.pvector.1* %3, %class.pvector.1* %12), !dbg !1051
  %24 = load %class.pvector.1, %class.pvector.1* %3, align 8, !dbg !1052
  ret %class.pvector.1 %24, !dbg !1053
}

define linkonce_odr %class.pvector.1 @_ZN6ReaderIi10NodeWeightIiiEiLb1EE9ReadInWELEP8_IO_FILE(%class.Reader* %0, %struct._IO_FILE* %1) #1 !dbg !1054 {
  %3 = alloca %class.pvector.1, i64 1, align 8
  %4 = alloca %struct.EdgePair, i64 1, align 8
  %5 = alloca %struct.NodeWeight, i64 1, align 8
  %6 = alloca %struct.EdgePair, i64 1, align 8
  %7 = alloca %struct.EdgePair, i64 1, align 8
  %8 = alloca %struct.NodeWeight, i64 1, align 8, !dbg !1055
  %9 = alloca i32, i64 1, align 4, !dbg !1057
  store i32 undef, i32* %9, align 4, !dbg !1057
  %10 = alloca %class.pvector.1, i64 1, align 8, !dbg !1058
  call void @_ZN7pvectorI8EdgePairIi10NodeWeightIiiEEEC1Ev(%class.pvector.1* %10), !dbg !1059
  %11 = getelementptr %struct.NodeWeight, %struct.NodeWeight* %8, i32 0, i32 0, !dbg !1060
  %12 = getelementptr %struct.NodeWeight, %struct.NodeWeight* %8, i32 0, i32 1, !dbg !1061
  br label %13, !dbg !1062

13:                                               ; preds = %16, %2
  %14 = call i32 (%struct._IO_FILE*, i8*, ...) @__isoc99_fscanf(%struct._IO_FILE* %1, i8* getelementptr inbounds ([10 x i8], [10 x i8]* @str70, i32 0, i32 0), i32* %9, i32* %11, i32* %12), !dbg !1063
  %15 = icmp ne i32 %14, -1, !dbg !1064
  br i1 %15, label %16, label %21, !dbg !1065

16:                                               ; preds = %13
  %17 = load i32, i32* %9, align 4, !dbg !1066
  call void @_ZN10NodeWeightIiiEC1ERKS0_(%struct.NodeWeight* %5, %struct.NodeWeight* %8), !dbg !1067
  %18 = load %struct.NodeWeight, %struct.NodeWeight* %5, align 4, !dbg !1068
  call void @_ZN8EdgePairIi10NodeWeightIiiEEC1EiS1_(%struct.EdgePair* %6, i32 %17, %struct.NodeWeight %18), !dbg !1068
  %19 = load %struct.EdgePair, %struct.EdgePair* %6, align 4, !dbg !1068
  store %struct.EdgePair %19, %struct.EdgePair* %4, align 4, !dbg !1068
  call void @_ZN8EdgePairIi10NodeWeightIiiEEC1EOS2_(%struct.EdgePair* %7, %struct.EdgePair* %4), !dbg !1068
  %20 = load %struct.EdgePair, %struct.EdgePair* %7, align 4, !dbg !1069
  call void @_ZN7pvectorI8EdgePairIi10NodeWeightIiiEEE9push_backES3_(%class.pvector.1* %10, %struct.EdgePair %20), !dbg !1069
  br label %13, !dbg !1065

21:                                               ; preds = %13
  call void @_ZN7pvectorI8EdgePairIi10NodeWeightIiiEEEC1EOS4_(%class.pvector.1* %3, %class.pvector.1* %10), !dbg !1070
  %22 = load %class.pvector.1, %class.pvector.1* %3, align 8, !dbg !1071
  ret %class.pvector.1 %22, !dbg !1072
}

define linkonce_odr %class.pvector.1 @_ZN6ReaderIi10NodeWeightIiiEiLb1EE8ReadInGREP8_IO_FILE(%class.Reader* %0, %struct._IO_FILE* %1) #1 !dbg !1073 {
  %3 = alloca %class.pvector.1, i64 1, align 8
  %4 = alloca %struct.EdgePair, i64 1, align 8
  %5 = alloca %struct.NodeWeight, i64 1, align 8
  %6 = alloca %struct.NodeWeight, i64 1, align 8
  %7 = alloca %struct.NodeWeight, i64 1, align 8
  %8 = alloca %struct.EdgePair, i64 1, align 8
  %9 = alloca %struct.EdgePair, i64 1, align 8
  %10 = alloca %struct.NodeWeight, i64 1, align 8, !dbg !1074
  %11 = alloca i32, i64 1, align 4, !dbg !1076
  store i32 undef, i32* %11, align 4, !dbg !1076
  %12 = alloca i8, i64 1, align 1, !dbg !1077
  store i8 undef, i8* %12, align 1, !dbg !1077
  %13 = alloca %class.pvector.1, i64 1, align 8, !dbg !1078
  call void @_ZN7pvectorI8EdgePairIi10NodeWeightIiiEEEC1Ev(%class.pvector.1* %13), !dbg !1079
  br label %14, !dbg !1080

14:                                               ; preds = %40, %2
  %15 = call i32 @feof(%struct._IO_FILE* %1), !dbg !1080
  %16 = icmp ne i32 %15, 0, !dbg !1080
  %17 = zext i1 %16 to i8, !dbg !1080
  %18 = icmp eq i8 %17, 0, !dbg !1081
  br i1 %18, label %19, label %41, !dbg !1082

19:                                               ; preds = %14
  %20 = call i32 @getc(%struct._IO_FILE* %1), !dbg !1083
  %21 = call i32 @ungetc(i32 %20, %struct._IO_FILE* %1), !dbg !1084
  %22 = trunc i32 %21 to i8, !dbg !1084
  store i8 %22, i8* %12, align 1, !dbg !1085
  %23 = load i8, i8* %12, align 1, !dbg !1086
  %24 = sext i8 %23 to i32, !dbg !1086
  %25 = icmp eq i32 %24, 97, !dbg !1087
  br i1 %25, label %26, label %39, !dbg !1088

26:                                               ; preds = %19
  %27 = getelementptr %struct.NodeWeight, %struct.NodeWeight* %10, i32 0, i32 0, !dbg !1089
  %28 = getelementptr %struct.NodeWeight, %struct.NodeWeight* %10, i32 0, i32 1, !dbg !1090
  %29 = call i32 (%struct._IO_FILE*, i8*, ...) @__isoc99_fscanf(%struct._IO_FILE* %1, i8* getelementptr inbounds ([13 x i8], [13 x i8]* @str71, i32 0, i32 0), i8* %12, i32* %11, i32* %27, i32* %28), !dbg !1091
  %30 = load i32, i32* %11, align 4, !dbg !1092
  %31 = add i32 %30, -1, !dbg !1093
  %32 = load i32, i32* %27, align 4, !dbg !1094
  %33 = add i32 %32, -1, !dbg !1095
  %34 = load i32, i32* %28, align 4, !dbg !1096
  call void @_ZN10NodeWeightIiiEC1Eii(%struct.NodeWeight* %6, i32 %33, i32 %34), !dbg !1097
  %35 = load %struct.NodeWeight, %struct.NodeWeight* %6, align 4, !dbg !1097
  store %struct.NodeWeight %35, %struct.NodeWeight* %5, align 4, !dbg !1097
  call void @_ZN10NodeWeightIiiEC1EOS0_(%struct.NodeWeight* %7, %struct.NodeWeight* %5), !dbg !1097
  %36 = load %struct.NodeWeight, %struct.NodeWeight* %7, align 4, !dbg !1098
  call void @_ZN8EdgePairIi10NodeWeightIiiEEC1EiS1_(%struct.EdgePair* %8, i32 %31, %struct.NodeWeight %36), !dbg !1098
  %37 = load %struct.EdgePair, %struct.EdgePair* %8, align 4, !dbg !1098
  store %struct.EdgePair %37, %struct.EdgePair* %4, align 4, !dbg !1098
  call void @_ZN8EdgePairIi10NodeWeightIiiEEC1EOS2_(%struct.EdgePair* %9, %struct.EdgePair* %4), !dbg !1098
  %38 = load %struct.EdgePair, %struct.EdgePair* %9, align 4, !dbg !1099
  call void @_ZN7pvectorI8EdgePairIi10NodeWeightIiiEEE9push_backES3_(%class.pvector.1* %13, %struct.EdgePair %38), !dbg !1099
  br label %40, !dbg !1088

39:                                               ; preds = %19
  call void @_ZN6ReaderIi10NodeWeightIiiEiLb1EE8c_ignoreEP8_IO_FILEjc(%class.Reader* %0, %struct._IO_FILE* %1, i32 200, i8 10), !dbg !1100
  br label %40, !dbg !1088

40:                                               ; preds = %26, %39
  br label %14, !dbg !1082

41:                                               ; preds = %14
  call void @_ZN7pvectorI8EdgePairIi10NodeWeightIiiEEEC1EOS4_(%class.pvector.1* %3, %class.pvector.1* %13), !dbg !1101
  %42 = load %class.pvector.1, %class.pvector.1* %3, align 8, !dbg !1102
  ret %class.pvector.1 %42, !dbg !1103
}

define linkonce_odr void @_ZN7pvectorI8EdgePairIi10NodeWeightIiiEEEC1EOS4_(%class.pvector.1* %0, %class.pvector.1* %1) #1 !dbg !1104 {
  %3 = getelementptr %class.pvector.1, %class.pvector.1* %1, i32 0, i32 0, !dbg !1105
  %4 = load %struct.EdgePair*, %struct.EdgePair** %3, align 8, !dbg !1107
  %5 = getelementptr %class.pvector.1, %class.pvector.1* %0, i32 0, i32 0, !dbg !1108
  store %struct.EdgePair* %4, %struct.EdgePair** %5, align 8, !dbg !1108
  %6 = getelementptr %class.pvector.1, %class.pvector.1* %1, i32 0, i32 1, !dbg !1109
  %7 = load %struct.EdgePair*, %struct.EdgePair** %6, align 8, !dbg !1110
  %8 = getelementptr %class.pvector.1, %class.pvector.1* %0, i32 0, i32 1, !dbg !1108
  store %struct.EdgePair* %7, %struct.EdgePair** %8, align 8, !dbg !1108
  %9 = getelementptr %class.pvector.1, %class.pvector.1* %1, i32 0, i32 2, !dbg !1111
  %10 = load %struct.EdgePair*, %struct.EdgePair** %9, align 8, !dbg !1112
  %11 = getelementptr %class.pvector.1, %class.pvector.1* %0, i32 0, i32 2, !dbg !1108
  store %struct.EdgePair* %10, %struct.EdgePair** %11, align 8, !dbg !1108
  store %struct.EdgePair* null, %struct.EdgePair** %3, align 8, !dbg !1113
  store %struct.EdgePair* null, %struct.EdgePair** %6, align 8, !dbg !1114
  store %struct.EdgePair* null, %struct.EdgePair** %9, align 8, !dbg !1115
  ret void, !dbg !1116
}

define linkonce_odr i32 @_ZNSt14numeric_limitsIiE3maxEv() #1 !dbg !1117 {
  ret i32 2147483647, !dbg !1119
}

define linkonce_odr %class.pvector.1 @_ZN9GeneratorIi10NodeWeightIiiEiE13MakeUniformELEv(%class.Generator* %0) #1 !dbg !1121 {
  %2 = alloca %class.pvector.1, i64 1, align 8
  %3 = alloca %struct.EdgePair, i64 1, align 8
  %4 = alloca %struct.NodeWeight, i64 1, align 8
  %5 = alloca %struct.NodeWeight, i64 1, align 8
  %6 = alloca %struct.NodeWeight, i64 1, align 8
  %7 = alloca %struct.EdgePair, i64 1, align 8
  %8 = alloca i64, i64 1, align 8
  store i64 undef, i64* %8, align 8
  %9 = alloca %"class.std::uniform_int_distribution", i64 1, align 8, !dbg !1122
  %10 = alloca %"class.std::mersenne_twister_engine", i64 1, align 8, !dbg !1124
  %11 = alloca %class.pvector.1, i64 1, align 8, !dbg !1125
  %12 = getelementptr %class.Generator, %class.Generator* %0, i32 0, i32 3, !dbg !1126
  %13 = load i64, i64* %12, align 8, !dbg !1126
  call void @_ZN7pvectorI8EdgePairIi10NodeWeightIiiEEEC1Em(%class.pvector.1* %11, i64 %13), !dbg !1127
  call void @_ZNSt23mersenne_twister_engineImLm32ELm624ELm397ELm31ELm2567483615ELm11ELm4294967295ELm7ELm2636928640ELm15ELm4022730752ELm18ELm1812433253EE4seedEm(%"class.std::mersenne_twister_engine"* %10, i64 5489), !dbg !1128
  %14 = getelementptr %class.Generator, %class.Generator* %0, i32 0, i32 2, !dbg !1132
  %15 = load i64, i64* %14, align 8, !dbg !1132
  %16 = add i64 %15, -1, !dbg !1133
  %17 = trunc i64 %16 to i32, !dbg !1132
  call void @_ZNSt24uniform_int_distributionIiEC1Eii(%"class.std::uniform_int_distribution"* %9, i32 0, i32 %17), !dbg !1134
  br label %18, !dbg !1135

18:                                               ; preds = %42, %1
  %19 = phi i64 [ %26, %42 ], [ 0, %1 ]
  %20 = load i64, i64* %12, align 8, !dbg !1135
  %21 = icmp slt i64 %19, %20, !dbg !1136
  br i1 %21, label %22, label %43, !dbg !1137

22:                                               ; preds = %18
  %23 = phi i64 [ %19, %18 ]
  %24 = sdiv i64 %23, 262144, !dbg !1138
  %25 = add i64 %24, 27491095, !dbg !1139
  call void @_ZNSt23mersenne_twister_engineImLm32ELm624ELm397ELm31ELm2567483615ELm11ELm4294967295ELm7ELm2636928640ELm15ELm4022730752ELm18ELm1812433253EE4seedEm(%"class.std::mersenne_twister_engine"* %10, i64 %25), !dbg !1140
  %26 = add i64 %23, 262144, !dbg !1141
  br label %27, !dbg !1141

27:                                               ; preds = %32, %22
  %28 = phi i64 [ %41, %32 ], [ %23, %22 ]
  store i64 %26, i64* %8, align 8, !dbg !1142
  %29 = call i64* @_ZSt3minIlERKT_S2_S2_(i64* %8, i64* %12), !dbg !1143
  %30 = load i64, i64* %29, align 8, !dbg !1143
  %31 = icmp slt i64 %28, %30, !dbg !1144
  br i1 %31, label %32, label %42, !dbg !1145

32:                                               ; preds = %27
  %33 = phi i64 [ %28, %27 ]
  %34 = call %struct.EdgePair* @_ZN7pvectorI8EdgePairIi10NodeWeightIiiEEEixEm(%class.pvector.1* %11, i64 %33), !dbg !1146
  %35 = call i32 @_ZNSt24uniform_int_distributionIiEclISt23mersenne_twister_engineImLm32ELm624ELm397ELm31ELm2567483615ELm11ELm4294967295ELm7ELm2636928640ELm15ELm4022730752ELm18ELm1812433253EEEEiRT_(%"class.std::uniform_int_distribution"* %9, %"class.std::mersenne_twister_engine"* %10), !dbg !1147
  %36 = call i32 @_ZNSt24uniform_int_distributionIiEclISt23mersenne_twister_engineImLm32ELm624ELm397ELm31ELm2567483615ELm11ELm4294967295ELm7ELm2636928640ELm15ELm4022730752ELm18ELm1812433253EEEEiRT_(%"class.std::uniform_int_distribution"* %9, %"class.std::mersenne_twister_engine"* %10), !dbg !1148
  call void @_ZN10NodeWeightIiiEC1Ei(%struct.NodeWeight* %5, i32 %36), !dbg !1148
  %37 = load %struct.NodeWeight, %struct.NodeWeight* %5, align 4, !dbg !1148
  store %struct.NodeWeight %37, %struct.NodeWeight* %4, align 4, !dbg !1148
  call void @_ZN10NodeWeightIiiEC1EOS0_(%struct.NodeWeight* %6, %struct.NodeWeight* %4), !dbg !1148
  %38 = load %struct.NodeWeight, %struct.NodeWeight* %6, align 4, !dbg !1149
  call void @_ZN8EdgePairIi10NodeWeightIiiEEC1EiS1_(%struct.EdgePair* %7, i32 %35, %struct.NodeWeight %38), !dbg !1149
  %39 = load %struct.EdgePair, %struct.EdgePair* %7, align 4, !dbg !1149
  store %struct.EdgePair %39, %struct.EdgePair* %3, align 4, !dbg !1149
  %40 = call %struct.EdgePair* @_ZN8EdgePairIi10NodeWeightIiiEEaSEOS2_(%struct.EdgePair* %34, %struct.EdgePair* %3), !dbg !1150
  %41 = add i64 %33, 1, !dbg !1151
  br label %27, !dbg !1145

42:                                               ; preds = %27
  br label %18, !dbg !1137

43:                                               ; preds = %18
  call void @_ZN7pvectorI8EdgePairIi10NodeWeightIiiEEEC1EOS4_(%class.pvector.1* %2, %class.pvector.1* %11), !dbg !1152
  %44 = load %class.pvector.1, %class.pvector.1* %2, align 8, !dbg !1153
  ret %class.pvector.1 %44, !dbg !1154
}

define linkonce_odr %class.pvector.1 @_ZN9GeneratorIi10NodeWeightIiiEiE10MakeRMatELEv(%class.Generator* %0) #1 !dbg !1155 {
  %2 = alloca %class.pvector.1, i64 1, align 8
  %3 = alloca %struct.EdgePair, i64 1, align 8
  %4 = alloca %struct.NodeWeight, i64 1, align 8
  %5 = alloca %struct.NodeWeight, i64 1, align 8
  %6 = alloca %struct.NodeWeight, i64 1, align 8
  %7 = alloca %struct.EdgePair, i64 1, align 8
  %8 = alloca i64, i64 1, align 8
  store i64 undef, i64* %8, align 8
  %9 = alloca %"class.std::uniform_real_distribution", i64 1, align 8, !dbg !1156
  %10 = alloca %"class.std::mersenne_twister_engine", i64 1, align 8, !dbg !1158
  %11 = alloca %class.pvector.1, i64 1, align 8, !dbg !1159
  %12 = getelementptr %class.Generator, %class.Generator* %0, i32 0, i32 3, !dbg !1160
  %13 = load i64, i64* %12, align 8, !dbg !1160
  call void @_ZN7pvectorI8EdgePairIi10NodeWeightIiiEEEC1Em(%class.pvector.1* %11, i64 %13), !dbg !1161
  call void @_ZNSt23mersenne_twister_engineImLm32ELm624ELm397ELm31ELm2567483615ELm11ELm4294967295ELm7ELm2636928640ELm15ELm4022730752ELm18ELm1812433253EE4seedEm(%"class.std::mersenne_twister_engine"* %10, i64 5489), !dbg !1162
  call void @_ZNSt25uniform_real_distributionIfEC1Eff(%"class.std::uniform_real_distribution"* %9, float 0.000000e+00, float 1.000000e+00), !dbg !1166
  %14 = getelementptr %class.Generator, %class.Generator* %0, i32 0, i32 0, !dbg !1167
  br label %15, !dbg !1168

15:                                               ; preds = %73, %1
  %16 = phi i64 [ %23, %73 ], [ 0, %1 ]
  %17 = load i64, i64* %12, align 8, !dbg !1168
  %18 = icmp slt i64 %16, %17, !dbg !1169
  br i1 %18, label %19, label %74, !dbg !1170

19:                                               ; preds = %15
  %20 = phi i64 [ %16, %15 ]
  %21 = sdiv i64 %20, 262144, !dbg !1171
  %22 = add i64 %21, 27491095, !dbg !1172
  call void @_ZNSt23mersenne_twister_engineImLm32ELm624ELm397ELm31ELm2567483615ELm11ELm4294967295ELm7ELm2636928640ELm15ELm4022730752ELm18ELm1812433253EE4seedEm(%"class.std::mersenne_twister_engine"* %10, i64 %22), !dbg !1173
  %23 = add i64 %20, 262144, !dbg !1174
  br label %24, !dbg !1174

24:                                               ; preds = %66, %19
  %25 = phi i64 [ %72, %66 ], [ %20, %19 ]
  store i64 %23, i64* %8, align 8, !dbg !1175
  %26 = call i64* @_ZSt3minIlERKT_S2_S2_(i64* %8, i64* %12), !dbg !1176
  %27 = load i64, i64* %26, align 8, !dbg !1176
  %28 = icmp slt i64 %25, %27, !dbg !1177
  br i1 %28, label %29, label %73, !dbg !1178

29:                                               ; preds = %24
  %30 = phi i64 [ %25, %24 ]
  br label %31, !dbg !1167

31:                                               ; preds = %64, %29
  %32 = phi i32 [ %65, %64 ], [ 0, %29 ]
  %33 = phi i32 [ %62, %64 ], [ 0, %29 ]
  %34 = phi i32 [ %63, %64 ], [ 0, %29 ]
  %35 = load i32, i32* %14, align 4, !dbg !1167
  %36 = icmp slt i32 %32, %35, !dbg !1179
  br i1 %36, label %37, label %66, !dbg !1180

37:                                               ; preds = %31
  %38 = phi i32 [ %33, %31 ]
  %39 = phi i32 [ %34, %31 ]
  %40 = phi i32 [ %32, %31 ]
  %41 = call float @_ZNSt25uniform_real_distributionIfEclISt23mersenne_twister_engineImLm32ELm624ELm397ELm31ELm2567483615ELm11ELm4294967295ELm7ELm2636928640ELm15ELm4022730752ELm18ELm1812433253EEEEfRT_(%"class.std::uniform_real_distribution"* %9, %"class.std::mersenne_twister_engine"* %10), !dbg !1181
  %42 = shl i32 %39, 1, !dbg !1182
  %43 = shl i32 %38, 1, !dbg !1183
  %44 = fcmp olt float %41, 0x3FE851EB80000000, !dbg !1184
  br i1 %44, label %45, label %58, !dbg !1185

45:                                               ; preds = %37
  %46 = fcmp ogt float %41, 0x3FE23D70A0000000, !dbg !1186
  br i1 %46, label %47, label %50

47:                                               ; preds = %45, %58
  %48 = phi i32 [ %59, %58 ], [ %42, %45 ]
  %49 = add i32 %43, 1, !dbg !1187
  br label %52

50:                                               ; preds = %45, %58
  %51 = phi i32 [ %59, %58 ], [ %42, %45 ]
  br label %52

52:                                               ; preds = %47, %50
  %53 = phi i32 [ %43, %50 ], [ %49, %47 ]
  %54 = phi i32 [ %51, %50 ], [ %48, %47 ]
  br label %55

55:                                               ; preds = %52
  %56 = phi i32 [ %53, %52 ]
  %57 = phi i32 [ %54, %52 ]
  br label %61, !dbg !1185

58:                                               ; preds = %37
  %59 = add i32 %42, 1, !dbg !1188
  %60 = fcmp ogt float %41, 0x3FEE666660000000, !dbg !1189
  br i1 %60, label %47, label %50

61:                                               ; preds = %55
  %62 = phi i32 [ %56, %55 ]
  %63 = phi i32 [ %57, %55 ]
  br label %64, !dbg !1185

64:                                               ; preds = %61
  %65 = add i32 %40, 1, !dbg !1190
  br label %31, !dbg !1180

66:                                               ; preds = %31
  %67 = call %struct.EdgePair* @_ZN7pvectorI8EdgePairIi10NodeWeightIiiEEEixEm(%class.pvector.1* %11, i64 %30), !dbg !1191
  call void @_ZN10NodeWeightIiiEC1Ei(%struct.NodeWeight* %5, i32 %33), !dbg !1192
  %68 = load %struct.NodeWeight, %struct.NodeWeight* %5, align 4, !dbg !1192
  store %struct.NodeWeight %68, %struct.NodeWeight* %4, align 4, !dbg !1192
  call void @_ZN10NodeWeightIiiEC1EOS0_(%struct.NodeWeight* %6, %struct.NodeWeight* %4), !dbg !1192
  %69 = load %struct.NodeWeight, %struct.NodeWeight* %6, align 4, !dbg !1193
  call void @_ZN8EdgePairIi10NodeWeightIiiEEC1EiS1_(%struct.EdgePair* %7, i32 %34, %struct.NodeWeight %69), !dbg !1193
  %70 = load %struct.EdgePair, %struct.EdgePair* %7, align 4, !dbg !1193
  store %struct.EdgePair %70, %struct.EdgePair* %3, align 4, !dbg !1193
  %71 = call %struct.EdgePair* @_ZN8EdgePairIi10NodeWeightIiiEEaSEOS2_(%struct.EdgePair* %67, %struct.EdgePair* %3), !dbg !1194
  %72 = add i64 %30, 1, !dbg !1195
  br label %24, !dbg !1178

73:                                               ; preds = %24
  br label %15, !dbg !1170

74:                                               ; preds = %15
  call void @_ZN9GeneratorIi10NodeWeightIiiEiE10PermuteIDsER7pvectorI8EdgePairIiS1_EE(%class.Generator* %0, %class.pvector.1* %11), !dbg !1196
  call void @_ZN7pvectorI8EdgePairIi10NodeWeightIiiEEEC1EOS4_(%class.pvector.1* %2, %class.pvector.1* %11), !dbg !1197
  %75 = load %class.pvector.1, %class.pvector.1* %2, align 8, !dbg !1198
  ret %class.pvector.1 %75, !dbg !1199
}

define linkonce_odr void @_ZN8CSRGraphIi10NodeWeightIiiELb1EE16ReleaseResourcesEv(%class.CSRGraph* %0) #1 !dbg !1200 {
  %2 = getelementptr %class.CSRGraph, %class.CSRGraph* %0, i32 0, i32 4, !dbg !1201
  %3 = load %struct.NodeWeight**, %struct.NodeWeight*** %2, align 8, !dbg !1201
  %4 = icmp ne %struct.NodeWeight** %3, null, !dbg !1203
  br i1 %4, label %5, label %8, !dbg !1204

5:                                                ; preds = %1
  %6 = load %struct.NodeWeight**, %struct.NodeWeight*** %2, align 8, !dbg !1205
  %7 = bitcast %struct.NodeWeight** %6 to i8*, !dbg !1206
  call void @free(i8* %7), !dbg !1206
  br label %8, !dbg !1204

8:                                                ; preds = %5, %1
  %9 = getelementptr %class.CSRGraph, %class.CSRGraph* %0, i32 0, i32 5, !dbg !1207
  %10 = load %struct.NodeWeight*, %struct.NodeWeight** %9, align 8, !dbg !1207
  %11 = icmp ne %struct.NodeWeight* %10, null, !dbg !1208
  br i1 %11, label %12, label %15, !dbg !1209

12:                                               ; preds = %8
  %13 = load %struct.NodeWeight*, %struct.NodeWeight** %9, align 8, !dbg !1210
  %14 = bitcast %struct.NodeWeight* %13 to i8*, !dbg !1211
  call void @free(i8* %14), !dbg !1211
  br label %15, !dbg !1209

15:                                               ; preds = %12, %8
  %16 = getelementptr %class.CSRGraph, %class.CSRGraph* %0, i32 0, i32 0, !dbg !1212
  %17 = load i8, i8* %16, align 1, !dbg !1212
  %18 = icmp ne i8 %17, 0, !dbg !1213
  br i1 %18, label %19, label %34, !dbg !1213

19:                                               ; preds = %15
  %20 = getelementptr %class.CSRGraph, %class.CSRGraph* %0, i32 0, i32 6, !dbg !1214
  %21 = load %struct.NodeWeight**, %struct.NodeWeight*** %20, align 8, !dbg !1214
  %22 = icmp ne %struct.NodeWeight** %21, null, !dbg !1215
  br i1 %22, label %23, label %26, !dbg !1216

23:                                               ; preds = %19
  %24 = load %struct.NodeWeight**, %struct.NodeWeight*** %20, align 8, !dbg !1217
  %25 = bitcast %struct.NodeWeight** %24 to i8*, !dbg !1218
  call void @free(i8* %25), !dbg !1218
  br label %26, !dbg !1216

26:                                               ; preds = %23, %19
  %27 = getelementptr %class.CSRGraph, %class.CSRGraph* %0, i32 0, i32 7, !dbg !1219
  %28 = load %struct.NodeWeight*, %struct.NodeWeight** %27, align 8, !dbg !1219
  %29 = icmp ne %struct.NodeWeight* %28, null, !dbg !1220
  br i1 %29, label %30, label %33, !dbg !1221

30:                                               ; preds = %26
  %31 = load %struct.NodeWeight*, %struct.NodeWeight** %27, align 8, !dbg !1222
  %32 = bitcast %struct.NodeWeight* %31 to i8*, !dbg !1223
  call void @free(i8* %32), !dbg !1223
  br label %33, !dbg !1221

33:                                               ; preds = %30, %26
  br label %34, !dbg !1213

34:                                               ; preds = %33, %15
  ret void, !dbg !1224
}

define linkonce_odr i32 @_ZN11BuilderBaseIi10NodeWeightIiiEiLb1EE13FindMaxNodeIDERK7pvectorI8EdgePairIiS1_EE(%class.BuilderBase* %0, %class.pvector.1* %1) #1 !dbg !1225 {
  %3 = alloca i32, i64 1, align 4
  store i32 undef, i32* %3, align 4
  %4 = alloca %struct.EdgePair, i64 1, align 8, !dbg !1226
  %5 = alloca i32, i64 1, align 4, !dbg !1228
  store i32 undef, i32* %5, align 4, !dbg !1228
  store i32 0, i32* %5, align 4, !dbg !1228
  %6 = call %struct.EdgePair* @_ZNK7pvectorI8EdgePairIi10NodeWeightIiiEEE5beginEv(%class.pvector.1* %1), !dbg !1229
  %7 = getelementptr %struct.EdgePair, %struct.EdgePair* %4, i32 0, i32 0, !dbg !1230
  %8 = getelementptr %struct.EdgePair, %struct.EdgePair* %4, i32 0, i32 1, !dbg !1231
  br label %9, !dbg !1232

9:                                                ; preds = %13, %2
  %10 = phi %struct.EdgePair* [ %20, %13 ], [ %6, %2 ]
  %11 = call %struct.EdgePair* @_ZNK7pvectorI8EdgePairIi10NodeWeightIiiEEE3endEv(%class.pvector.1* %1), !dbg !1232
  %12 = icmp ult %struct.EdgePair* %10, %11, !dbg !1233
  br i1 %12, label %13, label %21, !dbg !1234

13:                                               ; preds = %9
  %14 = phi %struct.EdgePair* [ %10, %9 ]
  call void @_ZN8EdgePairIi10NodeWeightIiiEEC1ERKS2_(%struct.EdgePair* %4, %struct.EdgePair* %14), !dbg !1235
  %15 = call i32* @_ZSt3maxIiERKT_S2_S2_(i32* %5, i32* %7), !dbg !1236
  %16 = load i32, i32* %15, align 4, !dbg !1236
  store i32 %16, i32* %5, align 4, !dbg !1237
  %17 = call i32 @_ZN10NodeWeightIiiEcviEv(%struct.NodeWeight* %8), !dbg !1238
  store i32 %17, i32* %3, align 4, !dbg !1239
  %18 = call i32* @_ZSt3maxIiERKT_S2_S2_(i32* %5, i32* %3), !dbg !1240
  %19 = load i32, i32* %18, align 4, !dbg !1240
  store i32 %19, i32* %5, align 4, !dbg !1241
  %20 = getelementptr %struct.EdgePair, %struct.EdgePair* %14, i32 1, !dbg !1242
  br label %9, !dbg !1234

21:                                               ; preds = %9
  %22 = load i32, i32* %5, align 4, !dbg !1243
  ret i32 %22, !dbg !1244
}

define linkonce_odr void @_ZN9GeneratorIi10NodeWeightIiiEiE13InsertWeightsER7pvectorI8EdgePairIiS1_EE(%class.pvector.1* %0) #1 !dbg !1245 {
  %2 = alloca i64, i64 1, align 8
  store i64 undef, i64* %2, align 8
  %3 = alloca i64, i64 1, align 8, !dbg !1246
  store i64 undef, i64* %3, align 8, !dbg !1246
  %4 = alloca %"class.std::uniform_int_distribution", i64 1, align 8, !dbg !1248
  %5 = alloca %"class.std::mersenne_twister_engine", i64 1, align 8, !dbg !1249
  call void @_ZNSt23mersenne_twister_engineImLm32ELm624ELm397ELm31ELm2567483615ELm11ELm4294967295ELm7ELm2636928640ELm15ELm4022730752ELm18ELm1812433253EE4seedEm(%"class.std::mersenne_twister_engine"* %5, i64 5489), !dbg !1250
  call void @_ZNSt24uniform_int_distributionIiEC1Eii(%"class.std::uniform_int_distribution"* %4, i32 1, i32 255), !dbg !1254
  %6 = call i64 @_ZNK7pvectorI8EdgePairIi10NodeWeightIiiEEE4sizeEv(%class.pvector.1* %0), !dbg !1255
  store i64 %6, i64* %3, align 8, !dbg !1246
  br label %7, !dbg !1256

7:                                                ; preds = %28, %1
  %8 = phi i64 [ %15, %28 ], [ 0, %1 ]
  %9 = load i64, i64* %3, align 8, !dbg !1256
  %10 = icmp slt i64 %8, %9, !dbg !1257
  br i1 %10, label %11, label %29, !dbg !1258

11:                                               ; preds = %7
  %12 = phi i64 [ %8, %7 ]
  %13 = sdiv i64 %12, 262144, !dbg !1259
  %14 = add i64 %13, 27491095, !dbg !1260
  call void @_ZNSt23mersenne_twister_engineImLm32ELm624ELm397ELm31ELm2567483615ELm11ELm4294967295ELm7ELm2636928640ELm15ELm4022730752ELm18ELm1812433253EE4seedEm(%"class.std::mersenne_twister_engine"* %5, i64 %14), !dbg !1261
  %15 = add i64 %12, 262144, !dbg !1262
  br label %16, !dbg !1262

16:                                               ; preds = %21, %11
  %17 = phi i64 [ %27, %21 ], [ %12, %11 ]
  store i64 %15, i64* %2, align 8, !dbg !1263
  %18 = call i64* @_ZSt3minIlERKT_S2_S2_(i64* %2, i64* %3), !dbg !1264
  %19 = load i64, i64* %18, align 8, !dbg !1264
  %20 = icmp slt i64 %17, %19, !dbg !1265
  br i1 %20, label %21, label %28, !dbg !1266

21:                                               ; preds = %16
  %22 = phi i64 [ %17, %16 ]
  %23 = call %struct.EdgePair* @_ZN7pvectorI8EdgePairIi10NodeWeightIiiEEEixEm(%class.pvector.1* %0, i64 %22), !dbg !1267
  %24 = getelementptr %struct.EdgePair, %struct.EdgePair* %23, i32 0, i32 1, !dbg !1268
  %25 = getelementptr %struct.NodeWeight, %struct.NodeWeight* %24, i32 0, i32 1, !dbg !1269
  %26 = call i32 @_ZNSt24uniform_int_distributionIiEclISt23mersenne_twister_engineImLm32ELm624ELm397ELm31ELm2567483615ELm11ELm4294967295ELm7ELm2636928640ELm15ELm4022730752ELm18ELm1812433253EEEEiRT_(%"class.std::uniform_int_distribution"* %4, %"class.std::mersenne_twister_engine"* %5), !dbg !1270
  store i32 %26, i32* %25, align 4, !dbg !1271
  %27 = add i64 %22, 1, !dbg !1272
  br label %16, !dbg !1266

28:                                               ; preds = %16
  br label %7, !dbg !1258

29:                                               ; preds = %7
  ret void, !dbg !1273
}

define linkonce_odr void @_ZN11BuilderBaseIi10NodeWeightIiiEiLb1EE14MakeCSRInPlaceER7pvectorI8EdgePairIiS1_EEPPPS1_S9_SA_S9_(%class.BuilderBase* %0, %class.pvector.1* %1, %struct.NodeWeight*** %2, %struct.NodeWeight** %3, %struct.NodeWeight*** %4, %struct.NodeWeight** %5) #1 !dbg !1274 {
  %7 = alloca %struct.NodeWeight, i64 1, align 8
  %8 = alloca %struct.NodeWeight, i64 1, align 8
  %9 = alloca %struct.NodeWeight, i64 1, align 8
  %10 = alloca %struct.NodeWeight, i64 1, align 8
  %11 = alloca %struct.NodeWeight, i64 1, align 8, !dbg !1275
  %12 = alloca %struct.NodeWeight, i64 1, align 8
  %13 = alloca %struct.NodeWeight, i64 1, align 8
  %14 = alloca %struct.NodeWeight, i64 1, align 8, !dbg !1277
  %15 = alloca %class.pvector, i64 1, align 8, !dbg !1278
  %16 = alloca %struct.NodeWeight, i64 1, align 8
  %17 = alloca %struct.NodeWeight, i64 1, align 8
  %18 = alloca %class.pvector.15, i64 1, align 8, !dbg !1279
  %19 = alloca %class.pvector.15, i64 1, align 8
  %20 = alloca %class.pvector.15, i64 1, align 8
  %21 = alloca %struct.EdgePair, i64 1, align 8, !dbg !1280
  %22 = alloca %class.pvector, i64 1, align 8, !dbg !1281
  %23 = alloca %class.pvector, i64 1, align 8
  %24 = alloca %class.pvector, i64 1, align 8
  %25 = alloca %class.pvector.15, i64 1, align 8, !dbg !1282
  %26 = alloca %class.pvector.15, i64 1, align 8
  %27 = alloca %class.pvector.15, i64 1, align 8
  %28 = alloca %class.pvector, i64 1, align 8, !dbg !1283
  %29 = alloca %class.pvector, i64 1, align 8
  %30 = alloca %class.pvector, i64 1, align 8
  %31 = alloca %class.anon.17, i64 1, align 8
  %32 = call %struct.EdgePair* @_ZNK7pvectorI8EdgePairIi10NodeWeightIiiEEE5beginEv(%class.pvector.1* %1), !dbg !1284
  %33 = call %struct.EdgePair* @_ZNK7pvectorI8EdgePairIi10NodeWeightIiiEEE3endEv(%class.pvector.1* %1), !dbg !1285
  call void @_ZSt4sortIP8EdgePairIi10NodeWeightIiiEEEvT_S5_(%struct.EdgePair* %32, %struct.EdgePair* %33), !dbg !1286
  %34 = call %struct.EdgePair* @_ZNK7pvectorI8EdgePairIi10NodeWeightIiiEEE5beginEv(%class.pvector.1* %1), !dbg !1287
  %35 = call %struct.EdgePair* @_ZNK7pvectorI8EdgePairIi10NodeWeightIiiEEE3endEv(%class.pvector.1* %1), !dbg !1288
  %36 = call %struct.EdgePair* @_ZSt6uniqueIP8EdgePairIi10NodeWeightIiiEEET_S5_S5_(%struct.EdgePair* %34, %struct.EdgePair* %35), !dbg !1289
  %37 = call %struct.EdgePair* @_ZNK7pvectorI8EdgePairIi10NodeWeightIiiEEE5beginEv(%class.pvector.1* %1), !dbg !1290
  %38 = ptrtoint %struct.EdgePair* %36 to i64, !dbg !1291
  %39 = ptrtoint %struct.EdgePair* %37 to i64, !dbg !1291
  %40 = sub i64 %38, %39, !dbg !1291
  %41 = sdiv i64 %40, 12, !dbg !1291
  call void @_ZN7pvectorI8EdgePairIi10NodeWeightIiiEEE6resizeEm(%class.pvector.1* %1, i64 %41), !dbg !1292
  %42 = call %struct.EdgePair* @_ZNK7pvectorI8EdgePairIi10NodeWeightIiiEEE5beginEv(%class.pvector.1* %1), !dbg !1293
  %43 = call %struct.EdgePair* @_ZNK7pvectorI8EdgePairIi10NodeWeightIiiEEE3endEv(%class.pvector.1* %1), !dbg !1294
  %44 = load %class.anon.17, %class.anon.17* %31, align 1, !dbg !1295
  %45 = call %struct.EdgePair* @_ZSt9remove_ifIP8EdgePairIi10NodeWeightIiiEEZN11BuilderBaseIiS2_iLb1EE14MakeCSRInPlaceER7pvectorIS3_EPPPS2_SB_SC_SB_EUlS3_E_ET_SE_SE_T0_(%struct.EdgePair* %42, %struct.EdgePair* %43, %class.anon.17 %44), !dbg !1295
  %46 = call %struct.EdgePair* @_ZNK7pvectorI8EdgePairIi10NodeWeightIiiEEE5beginEv(%class.pvector.1* %1), !dbg !1296
  %47 = ptrtoint %struct.EdgePair* %45 to i64, !dbg !1297
  %48 = ptrtoint %struct.EdgePair* %46 to i64, !dbg !1297
  %49 = sub i64 %47, %48, !dbg !1297
  %50 = sdiv i64 %49, 12, !dbg !1297
  call void @_ZN7pvectorI8EdgePairIi10NodeWeightIiiEEE6resizeEm(%class.pvector.1* %1, i64 %50), !dbg !1298
  %51 = call %class.pvector @_ZN11BuilderBaseIi10NodeWeightIiiEiLb1EE12CountDegreesERK7pvectorI8EdgePairIiS1_EEb(%class.BuilderBase* %0, %class.pvector.1* %1, i8 0), !dbg !1299
  store %class.pvector %51, %class.pvector* %29, align 8, !dbg !1299
  call void @_ZN7pvectorIiEC1EOS0_(%class.pvector* %30, %class.pvector* %29), !dbg !1299
  %52 = load %class.pvector, %class.pvector* %30, align 8, !dbg !1283
  store %class.pvector %52, %class.pvector* %28, align 8, !dbg !1283
  %53 = call %class.pvector.15 @_ZN11BuilderBaseIi10NodeWeightIiiEiLb1EE17ParallelPrefixSumERK7pvectorIiE(%class.pvector* %28), !dbg !1300
  store %class.pvector.15 %53, %class.pvector.15* %26, align 8, !dbg !1300
  call void @_ZN7pvectorIlEC1EOS0_(%class.pvector.15* %27, %class.pvector.15* %26), !dbg !1300
  %54 = load %class.pvector.15, %class.pvector.15* %27, align 8, !dbg !1282
  store %class.pvector.15 %54, %class.pvector.15* %25, align 8, !dbg !1282
  %55 = call %class.pvector @_ZN11BuilderBaseIi10NodeWeightIiiEiLb1EE12CountDegreesERK7pvectorI8EdgePairIiS1_EEb(%class.BuilderBase* %0, %class.pvector.1* %1, i8 1), !dbg !1301
  store %class.pvector %55, %class.pvector* %23, align 8, !dbg !1301
  call void @_ZN7pvectorIiEC1EOS0_(%class.pvector* %24, %class.pvector* %23), !dbg !1301
  %56 = load %class.pvector, %class.pvector* %24, align 8, !dbg !1281
  store %class.pvector %56, %class.pvector* %22, align 8, !dbg !1281
  %57 = call %struct.EdgePair* @_ZNK7pvectorI8EdgePairIi10NodeWeightIiiEEE4dataEv(%class.pvector.1* %1), !dbg !1302
  %58 = bitcast %struct.EdgePair* %57 to %struct.NodeWeight*, !dbg !1303
  store %struct.NodeWeight* %58, %struct.NodeWeight** %3, align 8, !dbg !1304
  %59 = call %struct.EdgePair* @_ZNK7pvectorI8EdgePairIi10NodeWeightIiiEEE5beginEv(%class.pvector.1* %1), !dbg !1305
  %60 = call %struct.EdgePair* @_ZNK7pvectorI8EdgePairIi10NodeWeightIiiEEE3endEv(%class.pvector.1* %1), !dbg !1305
  %61 = getelementptr %struct.EdgePair, %struct.EdgePair* %21, i32 0, i32 0, !dbg !1306
  %62 = getelementptr %struct.EdgePair, %struct.EdgePair* %21, i32 0, i32 1, !dbg !1307
  br label %63, !dbg !1305

63:                                               ; preds = %66, %6
  %64 = phi %struct.EdgePair* [ %76, %66 ], [ %59, %6 ]
  %65 = icmp ne %struct.EdgePair* %64, %60, !dbg !1305
  br i1 %65, label %66, label %77, !dbg !1308

66:                                               ; preds = %63
  %67 = phi %struct.EdgePair* [ %64, %63 ]
  call void @_ZN8EdgePairIi10NodeWeightIiiEEC1ERKS2_(%struct.EdgePair* %21, %struct.EdgePair* %67), !dbg !1305
  %68 = load %struct.NodeWeight*, %struct.NodeWeight** %3, align 8, !dbg !1309
  %69 = load i32, i32* %61, align 4, !dbg !1310
  %70 = sext i32 %69 to i64, !dbg !1310
  %71 = call i64* @_ZN7pvectorIlEixEm(%class.pvector.15* %25, i64 %70), !dbg !1311
  %72 = load i64, i64* %71, align 8, !dbg !1312
  %73 = add i64 %72, 1, !dbg !1312
  store i64 %73, i64* %71, align 8, !dbg !1312
  %74 = getelementptr %struct.NodeWeight, %struct.NodeWeight* %68, i64 %72, !dbg !1309
  %75 = call %struct.NodeWeight* @_ZN10NodeWeightIiiEaSERKS0_(%struct.NodeWeight* %74, %struct.NodeWeight* %62), !dbg !1313
  %76 = getelementptr %struct.EdgePair, %struct.EdgePair* %67, i32 1, !dbg !1305
  br label %63, !dbg !1308

77:                                               ; preds = %63
  %78 = call i64 @_ZNK7pvectorI8EdgePairIi10NodeWeightIiiEEE4sizeEv(%class.pvector.1* %1), !dbg !1314
  call void @_ZN7pvectorI8EdgePairIi10NodeWeightIiiEEE4leakEv(%class.pvector.1* %1), !dbg !1315
  %79 = getelementptr %class.BuilderBase, %class.BuilderBase* %0, i32 0, i32 5, !dbg !1316
  %80 = load i64, i64* %79, align 8, !dbg !1316
  %81 = trunc i64 %80 to i32, !dbg !1316
  %82 = add i32 %81, 1, !dbg !1317
  %83 = sext i32 %82 to i64, !dbg !1317
  %84 = sext i32 %81 to i64, !dbg !1317
  br label %85, !dbg !1317

85:                                               ; preds = %103, %77
  %86 = phi i64 [ 0, %77 ], [ %104, %103 ]
  %87 = icmp slt i64 %86, %83, !dbg !1317
  br i1 %87, label %88, label %105, !dbg !1317

88:                                               ; preds = %85
  %89 = mul i64 %86, -1, !dbg !1317
  %90 = add i64 %84, %89, !dbg !1317
  %91 = trunc i64 %90 to i32, !dbg !1317
  %92 = sext i32 %91 to i64, !dbg !1318
  %93 = call i64* @_ZN7pvectorIlEixEm(%class.pvector.15* %25, i64 %92), !dbg !1319
  %94 = icmp ne i32 %91, 0, !dbg !1320
  br i1 %94, label %95, label %100, !dbg !1321

95:                                               ; preds = %88
  %96 = add i32 %91, -1, !dbg !1322
  %97 = sext i32 %96 to i64, !dbg !1323
  %98 = call i64* @_ZN7pvectorIlEixEm(%class.pvector.15* %25, i64 %97), !dbg !1324
  %99 = load i64, i64* %98, align 8, !dbg !1324
  br label %101, !dbg !1321

100:                                              ; preds = %88
  br label %101, !dbg !1321

101:                                              ; preds = %95, %100
  %102 = phi i64 [ 0, %100 ], [ %99, %95 ]
  br label %103, !dbg !1321

103:                                              ; preds = %101
  store i64 %102, i64* %93, align 8, !dbg !1325
  %104 = add i64 %86, 1, !dbg !1317
  br label %85, !dbg !1317

105:                                              ; preds = %85
  %106 = getelementptr %class.BuilderBase, %class.BuilderBase* %0, i32 0, i32 1, !dbg !1326
  %107 = load i8, i8* %106, align 1, !dbg !1326
  %108 = icmp ne i8 %107, 0, !dbg !1327
  br i1 %108, label %109, label %341, !dbg !1328

109:                                              ; preds = %105
  %110 = load i64, i64* %79, align 8, !dbg !1329
  call void @_ZN7pvectorIiEC1Em(%class.pvector* %15, i64 %110), !dbg !1330
  call void @_ZN7pvectorIiE4fillEi(%class.pvector* %15, i32 0), !dbg !1333
  br label %111, !dbg !1334

111:                                              ; preds = %156, %109
  %112 = phi i32 [ %121, %156 ], [ 0, %109 ]
  %113 = sext i32 %112 to i64, !dbg !1334
  %114 = load i64, i64* %79, align 8, !dbg !1335
  %115 = icmp slt i64 %113, %114, !dbg !1336
  br i1 %115, label %116, label %157, !dbg !1337

116:                                              ; preds = %111
  %117 = phi i32 [ %112, %111 ]
  %118 = sext i32 %117 to i64, !dbg !1334
  %119 = call i64* @_ZN7pvectorIlEixEm(%class.pvector.15* %25, i64 %118), !dbg !1338
  %120 = load i64, i64* %119, align 8, !dbg !1338
  %121 = add i32 %117, 1, !dbg !1339
  %122 = sext i32 %121 to i64, !dbg !1340
  br label %123, !dbg !1339

123:                                              ; preds = %154, %116
  %124 = phi i64 [ %155, %154 ], [ %120, %116 ]
  %125 = call i64* @_ZN7pvectorIlEixEm(%class.pvector.15* %25, i64 %122), !dbg !1341
  %126 = load i64, i64* %125, align 8, !dbg !1341
  %127 = icmp slt i64 %124, %126, !dbg !1342
  br i1 %127, label %128, label %156, !dbg !1343

128:                                              ; preds = %123
  %129 = phi i64 [ %124, %123 ]
  %130 = load %struct.NodeWeight*, %struct.NodeWeight** %3, align 8, !dbg !1344
  %131 = getelementptr %struct.NodeWeight, %struct.NodeWeight* %130, i64 %129, !dbg !1344
  call void @_ZN10NodeWeightIiiEC1ERKS0_(%struct.NodeWeight* %14, %struct.NodeWeight* %131), !dbg !1344
  %132 = load %struct.NodeWeight*, %struct.NodeWeight** %3, align 8, !dbg !1345
  %133 = call i32 @_ZN10NodeWeightIiiEcviEv(%struct.NodeWeight* %14), !dbg !1346
  %134 = sext i32 %133 to i64, !dbg !1346
  %135 = call i64* @_ZN7pvectorIlEixEm(%class.pvector.15* %25, i64 %134), !dbg !1347
  %136 = load i64, i64* %135, align 8, !dbg !1347
  %137 = getelementptr %struct.NodeWeight, %struct.NodeWeight* %132, i64 %136, !dbg !1348
  %138 = load %struct.NodeWeight*, %struct.NodeWeight** %3, align 8, !dbg !1349
  %139 = call i32 @_ZN10NodeWeightIiiEcviEv(%struct.NodeWeight* %14), !dbg !1350
  %140 = add i32 %139, 1, !dbg !1351
  %141 = sext i32 %140 to i64, !dbg !1350
  %142 = call i64* @_ZN7pvectorIlEixEm(%class.pvector.15* %25, i64 %141), !dbg !1352
  %143 = load i64, i64* %142, align 8, !dbg !1352
  %144 = getelementptr %struct.NodeWeight, %struct.NodeWeight* %138, i64 %143, !dbg !1353
  call void @_ZN10NodeWeightIiiEC1Ei(%struct.NodeWeight* %13, i32 %117), !dbg !1354
  %145 = load %struct.NodeWeight, %struct.NodeWeight* %13, align 4, !dbg !1354
  store %struct.NodeWeight %145, %struct.NodeWeight* %12, align 4, !dbg !1354
  %146 = call i8 @_ZSt13binary_searchIP10NodeWeightIiiES1_EbT_S3_RKT0_(%struct.NodeWeight* %137, %struct.NodeWeight* %144, %struct.NodeWeight* %12), !dbg !1355
  %147 = icmp eq i8 %146, 0, !dbg !1356
  br i1 %147, label %148, label %154

148:                                              ; preds = %128
  %149 = call i32 @_ZN10NodeWeightIiiEcviEv(%struct.NodeWeight* %14), !dbg !1357
  %150 = sext i32 %149 to i64, !dbg !1357
  %151 = call i32* @_ZN7pvectorIiEixEm(%class.pvector* %15, i64 %150), !dbg !1358
  %152 = load i32, i32* %151, align 4, !dbg !1359
  %153 = add i32 %152, 1, !dbg !1359
  store i32 %153, i32* %151, align 4, !dbg !1359
  br label %154

154:                                              ; preds = %148, %128
  %155 = add i64 %129, 1, !dbg !1360
  br label %123, !dbg !1343

156:                                              ; preds = %123
  br label %111, !dbg !1337

157:                                              ; preds = %111
  br label %158, !dbg !1361

158:                                              ; preds = %164, %157
  %159 = phi i32 [ %175, %164 ], [ 0, %157 ]
  %160 = phi i64 [ %174, %164 ], [ 0, %157 ]
  %161 = sext i32 %159 to i64, !dbg !1361
  %162 = load i64, i64* %79, align 8, !dbg !1362
  %163 = icmp sle i64 %161, %162, !dbg !1363
  br i1 %163, label %164, label %176, !dbg !1364

164:                                              ; preds = %158
  %165 = phi i64 [ %160, %158 ]
  %166 = phi i32 [ %159, %158 ]
  %167 = sext i32 %166 to i64, !dbg !1361
  %168 = call i64* @_ZN7pvectorIlEixEm(%class.pvector.15* %25, i64 %167), !dbg !1365
  %169 = load i64, i64* %168, align 8, !dbg !1366
  %170 = add i64 %169, %165, !dbg !1366
  store i64 %170, i64* %168, align 8, !dbg !1366
  %171 = call i32* @_ZN7pvectorIiEixEm(%class.pvector* %15, i64 %167), !dbg !1367
  %172 = load i32, i32* %171, align 4, !dbg !1367
  %173 = sext i32 %172 to i64, !dbg !1367
  %174 = add i64 %165, %173, !dbg !1368
  %175 = add i32 %166, 1, !dbg !1369
  br label %158, !dbg !1364

176:                                              ; preds = %158
  %177 = load i64, i64* %79, align 8, !dbg !1370
  %178 = call i64* @_ZN7pvectorIlEixEm(%class.pvector.15* %25, i64 %177), !dbg !1371
  %179 = load i64, i64* %178, align 8, !dbg !1371
  %180 = mul i64 %179, 8, !dbg !1372
  %181 = load %struct.NodeWeight*, %struct.NodeWeight** %3, align 8, !dbg !1373
  %182 = bitcast %struct.NodeWeight* %181 to i8*, !dbg !1373
  %183 = call i8* @realloc(i8* %182, i64 %180), !dbg !1374
  %184 = bitcast i8* %183 to %struct.NodeWeight*, !dbg !1375
  store %struct.NodeWeight* %184, %struct.NodeWeight** %3, align 8, !dbg !1376
  %185 = load %struct.NodeWeight*, %struct.NodeWeight** %3, align 8, !dbg !1377
  %186 = icmp eq %struct.NodeWeight* %185, null, !dbg !1378
  br i1 %186, label %187, label %189, !dbg !1379

187:                                              ; preds = %176
  %188 = call i32 (i8*, ...) @printf(i8* getelementptr inbounds ([26 x i8], [26 x i8]* @str72, i32 0, i32 0)), !dbg !1380
  call void @exit(i32 -33), !dbg !1381
  br label %189, !dbg !1379

189:                                              ; preds = %187, %176
  %190 = load i64, i64* %79, align 8, !dbg !1382
  %191 = call i64* @_ZN7pvectorIlEixEm(%class.pvector.15* %25, i64 %190), !dbg !1383
  %192 = load i64, i64* %191, align 8, !dbg !1383
  %193 = add i64 %192, -1, !dbg !1384
  %194 = load i64, i64* %79, align 8, !dbg !1385
  %195 = add i64 %194, -1, !dbg !1386
  %196 = trunc i64 %195 to i32, !dbg !1385
  %197 = add i32 %196, 1, !dbg !1387
  %198 = sext i32 %197 to i64, !dbg !1387
  %199 = sext i32 %196 to i64, !dbg !1387
  br label %200, !dbg !1387

200:                                              ; preds = %238, %189
  %201 = phi i64 [ 0, %189 ], [ %247, %238 ]
  %202 = phi i64 [ %193, %189 ], [ %246, %238 ]
  %203 = phi i64 [ %160, %189 ], [ %242, %238 ]
  %204 = icmp slt i64 %201, %198, !dbg !1387
  br i1 %204, label %205, label %248, !dbg !1387

205:                                              ; preds = %200
  %206 = mul i64 %201, -1, !dbg !1387
  %207 = add i64 %199, %206, !dbg !1387
  %208 = trunc i64 %207 to i32, !dbg !1387
  %209 = sext i32 %208 to i64, !dbg !1388
  %210 = call i64* @_ZN7pvectorIlEixEm(%class.pvector.15* %25, i64 %209), !dbg !1389
  %211 = load i64, i64* %210, align 8, !dbg !1389
  %212 = call i32* @_ZN7pvectorIiEixEm(%class.pvector* %15, i64 %209), !dbg !1390
  %213 = load i32, i32* %212, align 4, !dbg !1390
  %214 = sext i32 %213 to i64, !dbg !1390
  %215 = add i64 %211, %214, !dbg !1391
  %216 = add i32 %208, 1, !dbg !1392
  %217 = sext i32 %216 to i64, !dbg !1393
  %218 = call i64* @_ZN7pvectorIlEixEm(%class.pvector.15* %25, i64 %217), !dbg !1394
  %219 = load i64, i64* %218, align 8, !dbg !1394
  %220 = add i64 %219, -1, !dbg !1395
  %221 = sub i64 %219, %215, !dbg !1396
  %222 = mul i64 %221, -1, !dbg !1396
  %223 = add i64 %202, %222, !dbg !1396
  br label %224, !dbg !1396

224:                                              ; preds = %227, %205
  %225 = phi i64 [ %215, %205 ], [ %237, %227 ]
  %226 = icmp slt i64 %225, %219, !dbg !1396
  br i1 %226, label %227, label %238, !dbg !1396

227:                                              ; preds = %224
  %228 = sub i64 %225, %215, !dbg !1396
  %229 = mul i64 %228, -1, !dbg !1396
  %230 = add i64 %202, %229, !dbg !1396
  %231 = add i64 %220, %229, !dbg !1396
  %232 = load %struct.NodeWeight*, %struct.NodeWeight** %3, align 8, !dbg !1397
  %233 = getelementptr %struct.NodeWeight, %struct.NodeWeight* %232, i64 %230, !dbg !1397
  %234 = sub i64 %231, %203, !dbg !1398
  %235 = getelementptr %struct.NodeWeight, %struct.NodeWeight* %232, i64 %234, !dbg !1399
  %236 = call %struct.NodeWeight* @_ZN10NodeWeightIiiEaSERKS0_(%struct.NodeWeight* %233, %struct.NodeWeight* %235), !dbg !1400
  %237 = add i64 %225, 1, !dbg !1396
  br label %224, !dbg !1396

238:                                              ; preds = %224
  %239 = call i32* @_ZN7pvectorIiEixEm(%class.pvector* %15, i64 %209), !dbg !1401
  %240 = load i32, i32* %239, align 4, !dbg !1401
  %241 = sext i32 %240 to i64, !dbg !1401
  %242 = sub i64 %203, %241, !dbg !1402
  %243 = call i32* @_ZN7pvectorIiEixEm(%class.pvector* %15, i64 %209), !dbg !1403
  %244 = load i32, i32* %243, align 4, !dbg !1403
  %245 = sext i32 %244 to i64, !dbg !1403
  %246 = sub i64 %223, %245, !dbg !1404
  %247 = add i64 %201, 1, !dbg !1387
  br label %200, !dbg !1387

248:                                              ; preds = %266, %200
  %249 = phi i32 [ %264, %266 ], [ 0, %200 ]
  br label %250, !dbg !1405

250:                                              ; preds = %248
  %251 = phi i32 [ %249, %248 ]
  %252 = sext i32 %251 to i64, !dbg !1405
  %253 = load i64, i64* %79, align 8, !dbg !1406
  %254 = icmp slt i64 %252, %253, !dbg !1407
  br i1 %254, label %255, label %319, !dbg !1408

255:                                              ; preds = %250
  %256 = phi i32 [ %251, %250 ]
  %257 = sext i32 %256 to i64, !dbg !1405
  %258 = call i64* @_ZN7pvectorIlEixEm(%class.pvector.15* %25, i64 %257), !dbg !1409
  %259 = load i64, i64* %258, align 8, !dbg !1409
  %260 = call i32* @_ZN7pvectorIiEixEm(%class.pvector* %15, i64 %257), !dbg !1410
  %261 = load i32, i32* %260, align 4, !dbg !1410
  %262 = sext i32 %261 to i64, !dbg !1410
  %263 = add i64 %259, %262, !dbg !1411
  %264 = add i32 %256, 1, !dbg !1412
  %265 = sext i32 %264 to i64, !dbg !1413
  br label %266, !dbg !1412

266:                                              ; preds = %317, %255
  %267 = phi i64 [ %318, %317 ], [ %263, %255 ]
  %268 = call i64* @_ZN7pvectorIlEixEm(%class.pvector.15* %25, i64 %265), !dbg !1414
  %269 = load i64, i64* %268, align 8, !dbg !1414
  %270 = icmp slt i64 %267, %269, !dbg !1415
  br i1 %270, label %271, label %248, !dbg !1416

271:                                              ; preds = %266
  %272 = phi i64 [ %267, %266 ]
  %273 = load %struct.NodeWeight*, %struct.NodeWeight** %3, align 8, !dbg !1417
  %274 = getelementptr %struct.NodeWeight, %struct.NodeWeight* %273, i64 %272, !dbg !1417
  call void @_ZN10NodeWeightIiiEC1ERKS0_(%struct.NodeWeight* %11, %struct.NodeWeight* %274), !dbg !1417
  %275 = load %struct.NodeWeight*, %struct.NodeWeight** %3, align 8, !dbg !1418
  %276 = call i32 @_ZN10NodeWeightIiiEcviEv(%struct.NodeWeight* %11), !dbg !1419
  %277 = sext i32 %276 to i64, !dbg !1419
  %278 = call i64* @_ZN7pvectorIlEixEm(%class.pvector.15* %25, i64 %277), !dbg !1420
  %279 = load i64, i64* %278, align 8, !dbg !1420
  %280 = getelementptr %struct.NodeWeight, %struct.NodeWeight* %275, i64 %279, !dbg !1421
  %281 = call i32 @_ZN10NodeWeightIiiEcviEv(%struct.NodeWeight* %11), !dbg !1422
  %282 = sext i32 %281 to i64, !dbg !1422
  %283 = call i32* @_ZN7pvectorIiEixEm(%class.pvector* %15, i64 %282), !dbg !1423
  %284 = load i32, i32* %283, align 4, !dbg !1423
  %285 = getelementptr %struct.NodeWeight, %struct.NodeWeight* %280, i32 %284, !dbg !1424
  %286 = load %struct.NodeWeight*, %struct.NodeWeight** %3, align 8, !dbg !1425
  %287 = call i32 @_ZN10NodeWeightIiiEcviEv(%struct.NodeWeight* %11), !dbg !1426
  %288 = add i32 %287, 1, !dbg !1427
  %289 = sext i32 %288 to i64, !dbg !1426
  %290 = call i64* @_ZN7pvectorIlEixEm(%class.pvector.15* %25, i64 %289), !dbg !1428
  %291 = load i64, i64* %290, align 8, !dbg !1428
  %292 = getelementptr %struct.NodeWeight, %struct.NodeWeight* %286, i64 %291, !dbg !1429
  call void @_ZN10NodeWeightIiiEC1Ei(%struct.NodeWeight* %10, i32 %256), !dbg !1430
  %293 = load %struct.NodeWeight, %struct.NodeWeight* %10, align 4, !dbg !1430
  store %struct.NodeWeight %293, %struct.NodeWeight* %9, align 4, !dbg !1430
  %294 = call i8 @_ZSt13binary_searchIP10NodeWeightIiiES1_EbT_S3_RKT0_(%struct.NodeWeight* %285, %struct.NodeWeight* %292, %struct.NodeWeight* %9), !dbg !1431
  %295 = icmp eq i8 %294, 0, !dbg !1356
  br i1 %295, label %296, label %317

296:                                              ; preds = %271
  %297 = load %struct.NodeWeight*, %struct.NodeWeight** %3, align 8, !dbg !1432
  %298 = call i32 @_ZN10NodeWeightIiiEcviEv(%struct.NodeWeight* %11), !dbg !1433
  %299 = sext i32 %298 to i64, !dbg !1433
  %300 = call i64* @_ZN7pvectorIlEixEm(%class.pvector.15* %25, i64 %299), !dbg !1434
  %301 = load i64, i64* %300, align 8, !dbg !1434
  %302 = call i32 @_ZN10NodeWeightIiiEcviEv(%struct.NodeWeight* %11), !dbg !1435
  %303 = sext i32 %302 to i64, !dbg !1435
  %304 = call i32* @_ZN7pvectorIiEixEm(%class.pvector* %15, i64 %303), !dbg !1436
  %305 = load i32, i32* %304, align 4, !dbg !1436
  %306 = sext i32 %305 to i64, !dbg !1436
  %307 = add i64 %301, %306, !dbg !1437
  %308 = add i64 %307, -1, !dbg !1438
  %309 = getelementptr %struct.NodeWeight, %struct.NodeWeight* %297, i64 %308, !dbg !1432
  call void @_ZN10NodeWeightIiiEC1Ei(%struct.NodeWeight* %8, i32 %256), !dbg !1439
  %310 = load %struct.NodeWeight, %struct.NodeWeight* %8, align 4, !dbg !1439
  store %struct.NodeWeight %310, %struct.NodeWeight* %7, align 4, !dbg !1439
  %311 = call %struct.NodeWeight* @_ZN10NodeWeightIiiEaSEOS0_(%struct.NodeWeight* %309, %struct.NodeWeight* %7), !dbg !1440
  %312 = call i32 @_ZN10NodeWeightIiiEcviEv(%struct.NodeWeight* %11), !dbg !1441
  %313 = sext i32 %312 to i64, !dbg !1441
  %314 = call i32* @_ZN7pvectorIiEixEm(%class.pvector* %15, i64 %313), !dbg !1442
  %315 = load i32, i32* %314, align 4, !dbg !1443
  %316 = add i32 %315, -1, !dbg !1443
  store i32 %316, i32* %314, align 4, !dbg !1443
  br label %317

317:                                              ; preds = %296, %271
  %318 = add i64 %272, 1, !dbg !1444
  br label %266, !dbg !1416

319:                                              ; preds = %250
  br label %320, !dbg !1445

320:                                              ; preds = %325, %319
  %321 = phi i32 [ %333, %325 ], [ 0, %319 ]
  %322 = sext i32 %321 to i64, !dbg !1445
  %323 = load i64, i64* %79, align 8, !dbg !1446
  %324 = icmp slt i64 %322, %323, !dbg !1447
  br i1 %324, label %325, label %338, !dbg !1448

325:                                              ; preds = %320
  %326 = phi i32 [ %321, %320 ]
  %327 = sext i32 %326 to i64, !dbg !1445
  %328 = load %struct.NodeWeight*, %struct.NodeWeight** %3, align 8, !dbg !1449
  %329 = call i64* @_ZN7pvectorIlEixEm(%class.pvector.15* %25, i64 %327), !dbg !1450
  %330 = load i64, i64* %329, align 8, !dbg !1450
  %331 = getelementptr %struct.NodeWeight, %struct.NodeWeight* %328, i64 %330, !dbg !1451
  %332 = load %struct.NodeWeight*, %struct.NodeWeight** %3, align 8, !dbg !1452
  %333 = add i32 %326, 1, !dbg !1453
  %334 = sext i32 %333 to i64, !dbg !1454
  %335 = call i64* @_ZN7pvectorIlEixEm(%class.pvector.15* %25, i64 %334), !dbg !1455
  %336 = load i64, i64* %335, align 8, !dbg !1455
  %337 = getelementptr %struct.NodeWeight, %struct.NodeWeight* %332, i64 %336, !dbg !1456
  call void @_ZSt4sortIP10NodeWeightIiiEEvT_S3_(%struct.NodeWeight* %331, %struct.NodeWeight* %337), !dbg !1457
  br label %320, !dbg !1448

338:                                              ; preds = %320
  %339 = load %struct.NodeWeight*, %struct.NodeWeight** %3, align 8, !dbg !1458
  %340 = call %struct.NodeWeight** @_ZN8CSRGraphIi10NodeWeightIiiELb1EE8GenIndexERK7pvectorIlEPS1_(%class.pvector.15* %25, %struct.NodeWeight* %339), !dbg !1459
  store %struct.NodeWeight** %340, %struct.NodeWeight*** %2, align 8, !dbg !1460
  br label %394, !dbg !1328

341:                                              ; preds = %105
  %342 = mul i64 %78, 8, !dbg !1461
  %343 = load %struct.NodeWeight*, %struct.NodeWeight** %3, align 8, !dbg !1462
  %344 = bitcast %struct.NodeWeight* %343 to i8*, !dbg !1462
  %345 = call i8* @realloc(i8* %344, i64 %342), !dbg !1463
  %346 = bitcast i8* %345 to %struct.NodeWeight*, !dbg !1464
  store %struct.NodeWeight* %346, %struct.NodeWeight** %3, align 8, !dbg !1465
  %347 = load %struct.NodeWeight*, %struct.NodeWeight** %3, align 8, !dbg !1466
  %348 = call %struct.NodeWeight** @_ZN8CSRGraphIi10NodeWeightIiiELb1EE8GenIndexERK7pvectorIlEPS1_(%class.pvector.15* %25, %struct.NodeWeight* %347), !dbg !1467
  store %struct.NodeWeight** %348, %struct.NodeWeight*** %2, align 8, !dbg !1468
  %349 = call %class.pvector.15 @_ZN11BuilderBaseIi10NodeWeightIiiEiLb1EE17ParallelPrefixSumERK7pvectorIiE(%class.pvector* %22), !dbg !1469
  store %class.pvector.15 %349, %class.pvector.15* %19, align 8, !dbg !1469
  call void @_ZN7pvectorIlEC1EOS0_(%class.pvector.15* %20, %class.pvector.15* %19), !dbg !1469
  %350 = load %class.pvector.15, %class.pvector.15* %20, align 8, !dbg !1279
  store %class.pvector.15 %350, %class.pvector.15* %18, align 8, !dbg !1279
  %351 = load i64, i64* %79, align 8, !dbg !1470
  %352 = call i64* @_ZN7pvectorIlEixEm(%class.pvector.15* %18, i64 %351), !dbg !1471
  %353 = load i64, i64* %352, align 8, !dbg !1471
  %354 = mul i64 %353, 8, !dbg !1472
  %355 = call noalias noundef i8* @malloc(i64 %354), !dbg !1472
  %356 = bitcast i8* %355 to %struct.NodeWeight*, !dbg !1472
  store %struct.NodeWeight* %356, %struct.NodeWeight** %5, align 8, !dbg !1473
  %357 = load %struct.NodeWeight*, %struct.NodeWeight** %5, align 8, !dbg !1474
  %358 = call %struct.NodeWeight** @_ZN8CSRGraphIi10NodeWeightIiiELb1EE8GenIndexERK7pvectorIlEPS1_(%class.pvector.15* %18, %struct.NodeWeight* %357), !dbg !1475
  store %struct.NodeWeight** %358, %struct.NodeWeight*** %4, align 8, !dbg !1476
  br label %359, !dbg !1477

359:                                              ; preds = %392, %341
  %360 = phi i32 [ %370, %392 ], [ 0, %341 ]
  %361 = sext i32 %360 to i64, !dbg !1477
  %362 = load i64, i64* %79, align 8, !dbg !1478
  %363 = icmp slt i64 %361, %362, !dbg !1479
  br i1 %363, label %364, label %393, !dbg !1480

364:                                              ; preds = %359
  %365 = phi i32 [ %360, %359 ]
  %366 = load %struct.NodeWeight**, %struct.NodeWeight*** %2, align 8, !dbg !1481
  %367 = sext i32 %365 to i64, !dbg !1482
  %368 = getelementptr %struct.NodeWeight*, %struct.NodeWeight** %366, i64 %367, !dbg !1481
  %369 = load %struct.NodeWeight*, %struct.NodeWeight** %368, align 8, !dbg !1481
  %370 = add i32 %365, 1, !dbg !1483
  %371 = sext i32 %370 to i64, !dbg !1484
  br label %372, !dbg !1485

372:                                              ; preds = %378, %364
  %373 = phi %struct.NodeWeight* [ %391, %378 ], [ %369, %364 ]
  %374 = load %struct.NodeWeight**, %struct.NodeWeight*** %2, align 8, !dbg !1485
  %375 = getelementptr %struct.NodeWeight*, %struct.NodeWeight** %374, i64 %371, !dbg !1485
  %376 = load %struct.NodeWeight*, %struct.NodeWeight** %375, align 8, !dbg !1485
  %377 = icmp ult %struct.NodeWeight* %373, %376, !dbg !1486
  br i1 %377, label %378, label %392, !dbg !1487

378:                                              ; preds = %372
  %379 = phi %struct.NodeWeight* [ %373, %372 ]
  %380 = call i32 @_ZN10NodeWeightIiiEcviEv(%struct.NodeWeight* %379), !dbg !1488
  %381 = load %struct.NodeWeight*, %struct.NodeWeight** %5, align 8, !dbg !1489
  %382 = sext i32 %380 to i64, !dbg !1490
  %383 = call i64* @_ZN7pvectorIlEixEm(%class.pvector.15* %18, i64 %382), !dbg !1491
  %384 = load i64, i64* %383, align 8, !dbg !1491
  %385 = getelementptr %struct.NodeWeight, %struct.NodeWeight* %381, i64 %384, !dbg !1489
  call void @_ZN10NodeWeightIiiEC1Ei(%struct.NodeWeight* %17, i32 %365), !dbg !1492
  %386 = load %struct.NodeWeight, %struct.NodeWeight* %17, align 4, !dbg !1492
  store %struct.NodeWeight %386, %struct.NodeWeight* %16, align 4, !dbg !1492
  %387 = call %struct.NodeWeight* @_ZN10NodeWeightIiiEaSEOS0_(%struct.NodeWeight* %385, %struct.NodeWeight* %16), !dbg !1493
  %388 = call i64* @_ZN7pvectorIlEixEm(%class.pvector.15* %18, i64 %382), !dbg !1494
  %389 = load i64, i64* %388, align 8, !dbg !1495
  %390 = add i64 %389, 1, !dbg !1495
  store i64 %390, i64* %388, align 8, !dbg !1495
  %391 = getelementptr %struct.NodeWeight, %struct.NodeWeight* %379, i32 1, !dbg !1496
  br label %372, !dbg !1487

392:                                              ; preds = %372
  br label %359, !dbg !1480

393:                                              ; preds = %359
  br label %394, !dbg !1328

394:                                              ; preds = %338, %393
  ret void, !dbg !1497
}

define linkonce_odr void @_ZN11BuilderBaseIi10NodeWeightIiiEiLb1EE7MakeCSRERK7pvectorI8EdgePairIiS1_EEbPPPS1_SA_(%class.BuilderBase* %0, %class.pvector.1* %1, i8 %2, %struct.NodeWeight*** %3, %struct.NodeWeight** %4) #1 !dbg !1498 {
  %6 = alloca %struct.NodeWeight, i64 1, align 8
  %7 = alloca %struct.EdgePair, i64 1, align 8
  %8 = alloca %struct.EdgePair, i64 1, align 8, !dbg !1499
  %9 = alloca %class.pvector.15, i64 1, align 8, !dbg !1501
  %10 = alloca %class.pvector.15, i64 1, align 8
  %11 = alloca %class.pvector.15, i64 1, align 8
  %12 = alloca %class.pvector, i64 1, align 8, !dbg !1502
  %13 = alloca %class.pvector, i64 1, align 8
  %14 = alloca %class.pvector, i64 1, align 8
  %15 = call %class.pvector @_ZN11BuilderBaseIi10NodeWeightIiiEiLb1EE12CountDegreesERK7pvectorI8EdgePairIiS1_EEb(%class.BuilderBase* %0, %class.pvector.1* %1, i8 %2), !dbg !1503
  store %class.pvector %15, %class.pvector* %13, align 8, !dbg !1503
  call void @_ZN7pvectorIiEC1EOS0_(%class.pvector* %14, %class.pvector* %13), !dbg !1503
  %16 = load %class.pvector, %class.pvector* %14, align 8, !dbg !1502
  store %class.pvector %16, %class.pvector* %12, align 8, !dbg !1502
  %17 = call %class.pvector.15 @_ZN11BuilderBaseIi10NodeWeightIiiEiLb1EE17ParallelPrefixSumERK7pvectorIiE(%class.pvector* %12), !dbg !1504
  store %class.pvector.15 %17, %class.pvector.15* %10, align 8, !dbg !1504
  call void @_ZN7pvectorIlEC1EOS0_(%class.pvector.15* %11, %class.pvector.15* %10), !dbg !1504
  %18 = load %class.pvector.15, %class.pvector.15* %11, align 8, !dbg !1501
  store %class.pvector.15 %18, %class.pvector.15* %9, align 8, !dbg !1501
  %19 = getelementptr %class.BuilderBase, %class.BuilderBase* %0, i32 0, i32 5, !dbg !1505
  %20 = load i64, i64* %19, align 8, !dbg !1505
  %21 = call i64* @_ZN7pvectorIlEixEm(%class.pvector.15* %9, i64 %20), !dbg !1506
  %22 = load i64, i64* %21, align 8, !dbg !1506
  %23 = mul i64 %22, 8, !dbg !1507
  %24 = call noalias noundef i8* @malloc(i64 %23), !dbg !1507
  %25 = bitcast i8* %24 to %struct.NodeWeight*, !dbg !1507
  store %struct.NodeWeight* %25, %struct.NodeWeight** %4, align 8, !dbg !1508
  %26 = load %struct.NodeWeight*, %struct.NodeWeight** %4, align 8, !dbg !1509
  %27 = call %struct.NodeWeight** @_ZN8CSRGraphIi10NodeWeightIiiELb1EE8GenIndexERK7pvectorIlEPS1_(%class.pvector.15* %9, %struct.NodeWeight* %26), !dbg !1510
  store %struct.NodeWeight** %27, %struct.NodeWeight*** %3, align 8, !dbg !1511
  %28 = call %struct.EdgePair* @_ZNK7pvectorI8EdgePairIi10NodeWeightIiiEEE5beginEv(%class.pvector.1* %1), !dbg !1512
  %29 = getelementptr %class.BuilderBase, %class.BuilderBase* %0, i32 0, i32 1, !dbg !1513
  br label %30, !dbg !1514

30:                                               ; preds = %88, %5
  %31 = phi %struct.EdgePair* [ %89, %88 ], [ %28, %5 ]
  %32 = call %struct.EdgePair* @_ZNK7pvectorI8EdgePairIi10NodeWeightIiiEEE3endEv(%class.pvector.1* %1), !dbg !1514
  %33 = icmp ult %struct.EdgePair* %31, %32, !dbg !1515
  br i1 %33, label %34, label %90, !dbg !1516

34:                                               ; preds = %30
  %35 = phi %struct.EdgePair* [ %31, %30 ]
  call void @_ZN8EdgePairIi10NodeWeightIiiEEC1ERKS2_(%struct.EdgePair* %8, %struct.EdgePair* %35), !dbg !1517
  %36 = load i8, i8* %29, align 1, !dbg !1513
  %37 = icmp ne i8 %36, 0, !dbg !1518
  br i1 %37, label %38, label %40, !dbg !1518

38:                                               ; preds = %46, %34
  %39 = phi i1 [ %47, %46 ], [ true, %34 ]
  br label %48, !dbg !1518

40:                                               ; preds = %34
  %41 = load i8, i8* %29, align 1, !dbg !1519
  %42 = icmp ne i8 %41, 0, !dbg !1520
  br i1 %42, label %43, label %44, !dbg !1521

43:                                               ; preds = %40
  br label %46, !dbg !1521

44:                                               ; preds = %40
  %45 = icmp eq i8 %2, 0, !dbg !1522
  br label %46, !dbg !1521

46:                                               ; preds = %43, %44
  %47 = phi i1 [ %45, %44 ], [ false, %43 ]
  br label %38, !dbg !1521

48:                                               ; preds = %38
  %49 = phi i1 [ %39, %38 ]
  br label %50, !dbg !1518

50:                                               ; preds = %48
  br i1 %49, label %51, label %61, !dbg !1523

51:                                               ; preds = %50
  %52 = load %struct.NodeWeight*, %struct.NodeWeight** %4, align 8, !dbg !1524
  %53 = getelementptr %struct.EdgePair, %struct.EdgePair* %8, i32 0, i32 0, !dbg !1525
  %54 = load i32, i32* %53, align 4, !dbg !1526
  %55 = sext i32 %54 to i64, !dbg !1526
  %56 = call i64* @_ZN7pvectorIlEixEm(%class.pvector.15* %9, i64 %55), !dbg !1527
  %57 = call i64 @_Z13fetch_and_addIliET_RS0_T0_(i64* %56, i32 1), !dbg !1528
  %58 = getelementptr %struct.NodeWeight, %struct.NodeWeight* %52, i64 %57, !dbg !1524
  %59 = getelementptr %struct.EdgePair, %struct.EdgePair* %8, i32 0, i32 1, !dbg !1529
  %60 = call %struct.NodeWeight* @_ZN10NodeWeightIiiEaSERKS0_(%struct.NodeWeight* %58, %struct.NodeWeight* %59), !dbg !1530
  br label %61, !dbg !1523

61:                                               ; preds = %51, %50
  %62 = load i8, i8* %29, align 1, !dbg !1531
  %63 = icmp ne i8 %62, 0, !dbg !1532
  br i1 %63, label %64, label %66, !dbg !1532

64:                                               ; preds = %72, %61
  %65 = phi i1 [ %73, %72 ], [ true, %61 ]
  br label %74, !dbg !1532

66:                                               ; preds = %61
  %67 = load i8, i8* %29, align 1, !dbg !1533
  %68 = icmp ne i8 %67, 0, !dbg !1534
  br i1 %68, label %69, label %70, !dbg !1535

69:                                               ; preds = %66
  br label %72, !dbg !1535

70:                                               ; preds = %66
  %71 = icmp ne i8 %2, 0, !dbg !1535
  br label %72, !dbg !1535

72:                                               ; preds = %69, %70
  %73 = phi i1 [ %71, %70 ], [ false, %69 ]
  br label %64, !dbg !1535

74:                                               ; preds = %64
  %75 = phi i1 [ %65, %64 ]
  br label %76, !dbg !1532

76:                                               ; preds = %74
  br i1 %75, label %77, label %88, !dbg !1536

77:                                               ; preds = %76
  %78 = load %struct.NodeWeight*, %struct.NodeWeight** %4, align 8, !dbg !1537
  %79 = getelementptr %struct.EdgePair, %struct.EdgePair* %8, i32 0, i32 1, !dbg !1538
  %80 = call i32 @_ZN10NodeWeightIiiEcviEv(%struct.NodeWeight* %79), !dbg !1539
  %81 = sext i32 %80 to i64, !dbg !1540
  %82 = call i64* @_ZN7pvectorIlEixEm(%class.pvector.15* %9, i64 %81), !dbg !1541
  %83 = call i64 @_Z13fetch_and_addIliET_RS0_T0_(i64* %82, i32 1), !dbg !1542
  %84 = getelementptr %struct.NodeWeight, %struct.NodeWeight* %78, i64 %83, !dbg !1537
  call void @_ZN8EdgePairIi10NodeWeightIiiEEC1ERKS2_(%struct.EdgePair* %7, %struct.EdgePair* %8), !dbg !1543
  %85 = load %struct.EdgePair, %struct.EdgePair* %7, align 4, !dbg !1544
  %86 = call %struct.NodeWeight @_ZN11BuilderBaseIi10NodeWeightIiiEiLb1EE9GetSourceE8EdgePairIiS1_E(%class.BuilderBase* %0, %struct.EdgePair %85), !dbg !1544
  store %struct.NodeWeight %86, %struct.NodeWeight* %6, align 4, !dbg !1544
  %87 = call %struct.NodeWeight* @_ZN10NodeWeightIiiEaSEOS0_(%struct.NodeWeight* %84, %struct.NodeWeight* %6), !dbg !1545
  br label %88, !dbg !1536

88:                                               ; preds = %77, %76
  %89 = getelementptr %struct.EdgePair, %struct.EdgePair* %35, i32 1, !dbg !1546
  br label %30, !dbg !1516

90:                                               ; preds = %30
  ret void, !dbg !1547
}

define linkonce_odr void @_ZN11BuilderBaseIi10NodeWeightIiiEiLb1EE9SquishCSRERK8CSRGraphIiS1_Lb1EEbPPPS1_S8_(%class.BuilderBase* %0, %class.CSRGraph* %1, i8 %2, %struct.NodeWeight*** %3, %struct.NodeWeight** %4) #1 !dbg !1548 {
  %6 = alloca %"class.CSRGraph<int, NodeWeight<int, int>, true>::Neighborhood", i64 1, align 8
  %7 = alloca %"class.CSRGraph<int, NodeWeight<int, int>, true>::Neighborhood", i64 1, align 8
  %8 = alloca %class.pvector.15, i64 1, align 8, !dbg !1549
  %9 = alloca %class.pvector.15, i64 1, align 8
  %10 = alloca %class.pvector.15, i64 1, align 8
  %11 = alloca %"class.CSRGraph<int, NodeWeight<int, int>, true>::Neighborhood", i64 1, align 8
  %12 = alloca %"class.CSRGraph<int, NodeWeight<int, int>, true>::Neighborhood", i64 1, align 8
  %13 = alloca %"class.CSRGraph<int, NodeWeight<int, int>, true>::Neighborhood", i64 1, align 8
  %14 = alloca %"class.CSRGraph<int, NodeWeight<int, int>, true>::Neighborhood", i64 1, align 8
  %15 = alloca i32, i64 1, align 4, !dbg !1551
  store i32 undef, i32* %15, align 4, !dbg !1551
  %16 = alloca %class.pvector, i64 1, align 8, !dbg !1552
  %17 = call i64 @_ZNK8CSRGraphIi10NodeWeightIiiELb1EE9num_nodesEv(%class.CSRGraph* %1), !dbg !1553
  call void @_ZN7pvectorIiEC1Em(%class.pvector* %16, i64 %17), !dbg !1554
  store i32 0, i32* %15, align 4, !dbg !1551
  %18 = icmp ne i8 %2, 0, !dbg !1555
  br label %19, !dbg !1556

19:                                               ; preds = %42, %5
  %20 = phi i32 [ %54, %42 ], [ 0, %5 ]
  %21 = sext i32 %20 to i64, !dbg !1556
  %22 = call i64 @_ZNK8CSRGraphIi10NodeWeightIiiELb1EE9num_nodesEv(%class.CSRGraph* %1), !dbg !1557
  %23 = icmp slt i64 %21, %22, !dbg !1558
  br i1 %23, label %24, label %55, !dbg !1559

24:                                               ; preds = %19
  br i1 %18, label %25, label %32, !dbg !1555

25:                                               ; preds = %24
  %26 = load i32, i32* %15, align 4, !dbg !1560
  %27 = call %"class.CSRGraph<int, NodeWeight<int, int>, true>::Neighborhood" @_ZNK8CSRGraphIi10NodeWeightIiiELb1EE8in_neighEim(%class.CSRGraph* %1, i32 %26, i64 0), !dbg !1561
  store %"class.CSRGraph<int, NodeWeight<int, int>, true>::Neighborhood" %27, %"class.CSRGraph<int, NodeWeight<int, int>, true>::Neighborhood"* %14, align 8, !dbg !1562
  %28 = call %struct.NodeWeight* @_ZN8CSRGraphIi10NodeWeightIiiELb1EE12Neighborhood5beginEv(%"class.CSRGraph<int, NodeWeight<int, int>, true>::Neighborhood"* %14), !dbg !1563
  %29 = load i32, i32* %15, align 4, !dbg !1564
  %30 = call %"class.CSRGraph<int, NodeWeight<int, int>, true>::Neighborhood" @_ZNK8CSRGraphIi10NodeWeightIiiELb1EE8in_neighEim(%class.CSRGraph* %1, i32 %29, i64 0), !dbg !1565
  store %"class.CSRGraph<int, NodeWeight<int, int>, true>::Neighborhood" %30, %"class.CSRGraph<int, NodeWeight<int, int>, true>::Neighborhood"* %13, align 8, !dbg !1566
  %31 = call %struct.NodeWeight* @_ZN8CSRGraphIi10NodeWeightIiiELb1EE12Neighborhood3endEv(%"class.CSRGraph<int, NodeWeight<int, int>, true>::Neighborhood"* %13), !dbg !1567
  br label %39, !dbg !1555

32:                                               ; preds = %24
  %33 = load i32, i32* %15, align 4, !dbg !1568
  %34 = call %"class.CSRGraph<int, NodeWeight<int, int>, true>::Neighborhood" @_ZNK8CSRGraphIi10NodeWeightIiiELb1EE9out_neighEim(%class.CSRGraph* %1, i32 %33, i64 0), !dbg !1569
  store %"class.CSRGraph<int, NodeWeight<int, int>, true>::Neighborhood" %34, %"class.CSRGraph<int, NodeWeight<int, int>, true>::Neighborhood"* %12, align 8, !dbg !1570
  %35 = call %struct.NodeWeight* @_ZN8CSRGraphIi10NodeWeightIiiELb1EE12Neighborhood5beginEv(%"class.CSRGraph<int, NodeWeight<int, int>, true>::Neighborhood"* %12), !dbg !1571
  %36 = load i32, i32* %15, align 4, !dbg !1572
  %37 = call %"class.CSRGraph<int, NodeWeight<int, int>, true>::Neighborhood" @_ZNK8CSRGraphIi10NodeWeightIiiELb1EE9out_neighEim(%class.CSRGraph* %1, i32 %36, i64 0), !dbg !1573
  store %"class.CSRGraph<int, NodeWeight<int, int>, true>::Neighborhood" %37, %"class.CSRGraph<int, NodeWeight<int, int>, true>::Neighborhood"* %11, align 8, !dbg !1574
  %38 = call %struct.NodeWeight* @_ZN8CSRGraphIi10NodeWeightIiiELb1EE12Neighborhood3endEv(%"class.CSRGraph<int, NodeWeight<int, int>, true>::Neighborhood"* %11), !dbg !1575
  br label %39, !dbg !1555

39:                                               ; preds = %25, %32
  %40 = phi %struct.NodeWeight* [ %38, %32 ], [ %31, %25 ]
  %41 = phi %struct.NodeWeight* [ %35, %32 ], [ %28, %25 ]
  br label %42, !dbg !1555

42:                                               ; preds = %39
  call void @_ZSt4sortIP10NodeWeightIiiEEvT_S3_(%struct.NodeWeight* %41, %struct.NodeWeight* %40), !dbg !1576
  %43 = call %struct.NodeWeight* @_ZSt6uniqueIP10NodeWeightIiiEET_S3_S3_(%struct.NodeWeight* %41, %struct.NodeWeight* %40), !dbg !1577
  %44 = call %struct.NodeWeight* @_ZSt6removeIP10NodeWeightIiiEiET_S3_S3_RKT0_(%struct.NodeWeight* %41, %struct.NodeWeight* %43, i32* %15), !dbg !1578
  %45 = load i32, i32* %15, align 4, !dbg !1579
  %46 = sext i32 %45 to i64, !dbg !1579
  %47 = call i32* @_ZN7pvectorIiEixEm(%class.pvector* %16, i64 %46), !dbg !1580
  %48 = ptrtoint %struct.NodeWeight* %44 to i64, !dbg !1581
  %49 = ptrtoint %struct.NodeWeight* %41 to i64, !dbg !1581
  %50 = sub i64 %48, %49, !dbg !1581
  %51 = sdiv i64 %50, 8, !dbg !1581
  %52 = trunc i64 %51 to i32, !dbg !1582
  store i32 %52, i32* %47, align 4, !dbg !1583
  %53 = load i32, i32* %15, align 4, !dbg !1584
  %54 = add i32 %53, 1, !dbg !1584
  store i32 %54, i32* %15, align 4, !dbg !1584
  br label %19, !dbg !1559

55:                                               ; preds = %19
  %56 = call %class.pvector.15 @_ZN11BuilderBaseIi10NodeWeightIiiEiLb1EE17ParallelPrefixSumERK7pvectorIiE(%class.pvector* %16), !dbg !1585
  store %class.pvector.15 %56, %class.pvector.15* %9, align 8, !dbg !1585
  call void @_ZN7pvectorIlEC1EOS0_(%class.pvector.15* %10, %class.pvector.15* %9), !dbg !1585
  %57 = load %class.pvector.15, %class.pvector.15* %10, align 8, !dbg !1549
  store %class.pvector.15 %57, %class.pvector.15* %8, align 8, !dbg !1549
  %58 = call i64 @_ZNK8CSRGraphIi10NodeWeightIiiELb1EE9num_nodesEv(%class.CSRGraph* %1), !dbg !1586
  %59 = call i64* @_ZN7pvectorIlEixEm(%class.pvector.15* %8, i64 %58), !dbg !1587
  %60 = load i64, i64* %59, align 8, !dbg !1587
  %61 = mul i64 %60, 8, !dbg !1588
  %62 = call noalias noundef i8* @malloc(i64 %61), !dbg !1588
  %63 = bitcast i8* %62 to %struct.NodeWeight*, !dbg !1588
  store %struct.NodeWeight* %63, %struct.NodeWeight** %4, align 8, !dbg !1589
  %64 = load %struct.NodeWeight*, %struct.NodeWeight** %4, align 8, !dbg !1590
  %65 = call %struct.NodeWeight** @_ZN8CSRGraphIi10NodeWeightIiiELb1EE8GenIndexERK7pvectorIlEPS1_(%class.pvector.15* %8, %struct.NodeWeight* %64), !dbg !1591
  store %struct.NodeWeight** %65, %struct.NodeWeight*** %3, align 8, !dbg !1592
  br label %66, !dbg !1593

66:                                               ; preds = %82, %55
  %67 = phi i32 [ %91, %82 ], [ 0, %55 ]
  %68 = sext i32 %67 to i64, !dbg !1593
  %69 = call i64 @_ZNK8CSRGraphIi10NodeWeightIiiELb1EE9num_nodesEv(%class.CSRGraph* %1), !dbg !1594
  %70 = icmp slt i64 %68, %69, !dbg !1595
  br i1 %70, label %71, label %92, !dbg !1596

71:                                               ; preds = %66
  %72 = phi i32 [ %67, %66 ]
  %73 = sext i32 %72 to i64, !dbg !1593
  br i1 %18, label %74, label %77, !dbg !1597

74:                                               ; preds = %71
  %75 = call %"class.CSRGraph<int, NodeWeight<int, int>, true>::Neighborhood" @_ZNK8CSRGraphIi10NodeWeightIiiELb1EE8in_neighEim(%class.CSRGraph* %1, i32 %72, i64 0), !dbg !1598
  store %"class.CSRGraph<int, NodeWeight<int, int>, true>::Neighborhood" %75, %"class.CSRGraph<int, NodeWeight<int, int>, true>::Neighborhood"* %7, align 8, !dbg !1599
  %76 = call %struct.NodeWeight* @_ZN8CSRGraphIi10NodeWeightIiiELb1EE12Neighborhood5beginEv(%"class.CSRGraph<int, NodeWeight<int, int>, true>::Neighborhood"* %7), !dbg !1600
  br label %80, !dbg !1597

77:                                               ; preds = %71
  %78 = call %"class.CSRGraph<int, NodeWeight<int, int>, true>::Neighborhood" @_ZNK8CSRGraphIi10NodeWeightIiiELb1EE9out_neighEim(%class.CSRGraph* %1, i32 %72, i64 0), !dbg !1601
  store %"class.CSRGraph<int, NodeWeight<int, int>, true>::Neighborhood" %78, %"class.CSRGraph<int, NodeWeight<int, int>, true>::Neighborhood"* %6, align 8, !dbg !1602
  %79 = call %struct.NodeWeight* @_ZN8CSRGraphIi10NodeWeightIiiELb1EE12Neighborhood5beginEv(%"class.CSRGraph<int, NodeWeight<int, int>, true>::Neighborhood"* %6), !dbg !1603
  br label %80, !dbg !1597

80:                                               ; preds = %74, %77
  %81 = phi %struct.NodeWeight* [ %79, %77 ], [ %76, %74 ]
  br label %82, !dbg !1597

82:                                               ; preds = %80
  %83 = call i32* @_ZN7pvectorIiEixEm(%class.pvector* %16, i64 %73), !dbg !1604
  %84 = load i32, i32* %83, align 4, !dbg !1604
  %85 = getelementptr %struct.NodeWeight, %struct.NodeWeight* %81, i32 %84, !dbg !1605
  %86 = load %struct.NodeWeight**, %struct.NodeWeight*** %3, align 8, !dbg !1606
  %87 = sext i32 %72 to i64, !dbg !1607
  %88 = getelementptr %struct.NodeWeight*, %struct.NodeWeight** %86, i64 %87, !dbg !1606
  %89 = load %struct.NodeWeight*, %struct.NodeWeight** %88, align 8, !dbg !1606
  %90 = call %struct.NodeWeight* @_ZSt14__copy_move_a2ILb0EP10NodeWeightIiiES2_ET1_T0_S4_S3_(%struct.NodeWeight* %81, %struct.NodeWeight* %85, %struct.NodeWeight* %89), !dbg !1608
  %91 = add i32 %72, 1, !dbg !1612
  br label %66, !dbg !1596

92:                                               ; preds = %66
  ret void, !dbg !1613
}

define linkonce_odr i8 @_ZNK8CSRGraphIi10NodeWeightIiiELb1EE8directedEv(%class.CSRGraph* %0) #1 !dbg !1614 {
  %2 = getelementptr %class.CSRGraph, %class.CSRGraph* %0, i32 0, i32 0, !dbg !1615
  %3 = load i8, i8* %2, align 1, !dbg !1615
  ret i8 %3, !dbg !1617
}

define linkonce_odr void @_ZNSt23mersenne_twister_engineImLm32ELm624ELm397ELm31ELm2567483615ELm11ELm4294967295ELm7ELm2636928640ELm15ELm4022730752ELm18ELm1812433253EE4seedEm(%"class.std::mersenne_twister_engine"* %0, i64 %1) #1 !dbg !1618 {
  %3 = getelementptr %"class.std::mersenne_twister_engine", %"class.std::mersenne_twister_engine"* %0, i32 0, i32 0, !dbg !1619
  %4 = getelementptr [624 x i64], [624 x i64]* %3, i32 0, i32 0, !dbg !1619
  %5 = srem i64 %1, 4294967296, !dbg !1622
  store i64 %5, i64* %4, align 8, !dbg !1626
  br label %6, !dbg !1627

6:                                                ; preds = %9, %2
  %7 = phi i64 [ 1, %2 ], [ %20, %9 ]
  %8 = icmp slt i64 %7, 624, !dbg !1627
  br i1 %8, label %9, label %21, !dbg !1627

9:                                                ; preds = %6
  %10 = add i64 %7, -1, !dbg !1628
  %11 = getelementptr i64, i64* %4, i64 %10, !dbg !1629
  %12 = load i64, i64* %11, align 8, !dbg !1629
  %13 = ashr i64 %12, 30, !dbg !1630
  %14 = xor i64 %12, %13, !dbg !1631
  %15 = mul i64 %14, 1812433253, !dbg !1632
  %16 = srem i64 %7, 624, !dbg !1622
  %17 = add i64 %15, %16, !dbg !1633
  %18 = getelementptr i64, i64* %4, i64 %7, !dbg !1634
  %19 = srem i64 %17, 4294967296, !dbg !1622
  store i64 %19, i64* %18, align 8, !dbg !1635
  %20 = add i64 %7, 1, !dbg !1627
  br label %6, !dbg !1627

21:                                               ; preds = %6
  %22 = getelementptr %"class.std::mersenne_twister_engine", %"class.std::mersenne_twister_engine"* %0, i32 0, i32 1, !dbg !1636
  store i64 624, i64* %22, align 8, !dbg !1637
  ret void, !dbg !1638
}

define linkonce_odr void @_ZNSt24uniform_int_distributionIiE10param_typeC1Eii(%"struct.std::uniform_int_distribution<>::param_type"* %0, i32 %1, i32 %2) #1 !dbg !1639 {
  %4 = getelementptr %"struct.std::uniform_int_distribution<>::param_type", %"struct.std::uniform_int_distribution<>::param_type"* %0, i32 0, i32 0, !dbg !1640
  store i32 %1, i32* %4, align 4, !dbg !1640
  %5 = getelementptr %"struct.std::uniform_int_distribution<>::param_type", %"struct.std::uniform_int_distribution<>::param_type"* %0, i32 0, i32 1, !dbg !1640
  store i32 %2, i32* %5, align 4, !dbg !1640
  ret void, !dbg !1642
}

define linkonce_odr void @_ZNSt6chrono10time_pointINS_3_V212system_clockENS_8durationIlSt5ratioILl1ELl1000000000EEEEEC1Ev(%"struct.std::chrono::time_point"* %0) #1 !dbg !1643 {
  %2 = alloca %"struct.std::chrono::duration", i64 1, align 8
  %3 = alloca %"struct.std::chrono::duration", i64 1, align 8
  %4 = call %"struct.std::chrono::duration" @_ZNSt6chrono8durationIlSt5ratioILl1ELl1000000000EEE4zeroEv(), !dbg !1645
  store %"struct.std::chrono::duration" %4, %"struct.std::chrono::duration"* %2, align 8, !dbg !1645
  call void @_ZNSt6chrono8durationIlSt5ratioILl1ELl1000000000EEEC1ERKS3_(%"struct.std::chrono::duration"* %3, %"struct.std::chrono::duration"* %2), !dbg !1647
  %5 = getelementptr %"struct.std::chrono::time_point", %"struct.std::chrono::time_point"* %0, i32 0, i32 0, !dbg !1648
  %6 = load %"struct.std::chrono::duration", %"struct.std::chrono::duration"* %3, align 8, !dbg !1648
  store %"struct.std::chrono::duration" %6, %"struct.std::chrono::duration"* %5, align 8, !dbg !1648
  ret void, !dbg !1649
}

define linkonce_odr %"struct.std::chrono::time_point"* @_ZNSt6chrono10time_pointINS_3_V212system_clockENS_8durationIlSt5ratioILl1ELl1000000000EEEEEaSERKS7_(%"struct.std::chrono::time_point"* %0, %"struct.std::chrono::time_point"* %1) #1 !dbg !1650 {
  %3 = getelementptr %"struct.std::chrono::time_point", %"struct.std::chrono::time_point"* %0, i32 0, i32 0, !dbg !1651
  %4 = getelementptr %"struct.std::chrono::time_point", %"struct.std::chrono::time_point"* %1, i32 0, i32 0, !dbg !1651
  %5 = call %"struct.std::chrono::duration"* @_ZNSt6chrono8durationIlSt5ratioILl1ELl1000000000EEEaSERKS3_(%"struct.std::chrono::duration"* %3, %"struct.std::chrono::duration"* %4), !dbg !1651
  ret %"struct.std::chrono::time_point"* %0, !dbg !1651
}

define linkonce_odr %"struct.std::chrono::time_point"* @_ZNSt6chrono10time_pointINS_3_V212system_clockENS_8durationIlSt5ratioILl1ELl1000000000EEEEEaSEOS7_(%"struct.std::chrono::time_point"* %0, %"struct.std::chrono::time_point"* %1) #1 !dbg !1653 {
  %3 = getelementptr %"struct.std::chrono::time_point", %"struct.std::chrono::time_point"* %0, i32 0, i32 0, !dbg !1654
  %4 = getelementptr %"struct.std::chrono::time_point", %"struct.std::chrono::time_point"* %1, i32 0, i32 0, !dbg !1654
  %5 = call %"struct.std::chrono::duration"* @_ZNSt6chrono8durationIlSt5ratioILl1ELl1000000000EEEaSERKS3_(%"struct.std::chrono::duration"* %3, %"struct.std::chrono::duration"* %4), !dbg !1654
  ret %"struct.std::chrono::time_point"* %0, !dbg !1654
}

declare %"struct.std::chrono::time_point" @_ZNSt6chrono3_V212system_clock3nowEv() #1

define %class.pvector @_Z9DeltaStepRK8CSRGraphIi10NodeWeightIiiELb1EEii(%class.CSRGraph* %0, i32 %1, i32 %2) #1 !dbg !1656 {
  %4 = alloca %class.pvector, i64 1, align 8
  %5 = alloca %"class.__gnu_cxx::__normal_iterator.29", i64 1, align 8
  %6 = alloca %"class.__gnu_cxx::__normal_iterator.29", i64 1, align 8
  %7 = alloca %"class.__gnu_cxx::__normal_iterator.29", i64 1, align 8
  %8 = alloca %"class.__gnu_cxx::__normal_iterator.29", i64 1, align 8
  %9 = alloca i64, i64 1, align 8, !dbg !1657
  store i64 undef, i64* %9, align 8, !dbg !1657
  %10 = alloca %"class.__gnu_cxx::__normal_iterator.29", i64 1, align 8, !dbg !1659
  %11 = alloca %"class.__gnu_cxx::__normal_iterator.29", i64 1, align 8
  %12 = alloca %"class.__gnu_cxx::__normal_iterator.29", i64 1, align 8
  %13 = alloca %"class.__gnu_cxx::__normal_iterator.29", i64 1, align 8, !dbg !1659
  %14 = alloca %"class.__gnu_cxx::__normal_iterator.29", i64 1, align 8
  %15 = alloca %"class.__gnu_cxx::__normal_iterator.29", i64 1, align 8
  %16 = alloca %"class.std::vector.24", i64 1, align 8, !dbg !1660
  %17 = alloca %"class.std::vector.19", i64 1, align 8, !dbg !1661
  %18 = alloca %"class.std::allocator.21", i64 1, align 8
  %19 = alloca %"class.std::allocator.21", i64 1, align 8
  %20 = alloca %"class.std::vector.19", i64 1, align 8
  %21 = alloca [2 x i64], i64 1, align 8, !dbg !1662
  %22 = alloca [2 x i64], i64 1, align 8, !dbg !1663
  %23 = alloca %class.pvector, i64 1, align 8, !dbg !1664
  %24 = alloca %class.pvector, i64 1, align 8, !dbg !1665
  %25 = alloca %class.Timer, i64 1, align 8, !dbg !1666
  call void @_ZN5TimerC1Ev(%class.Timer* %25), !dbg !1667
  %26 = call i64 @_ZNK8CSRGraphIi10NodeWeightIiiELb1EE9num_nodesEv(%class.CSRGraph* %0), !dbg !1668
  call void @_ZN7pvectorIiEC1Em(%class.pvector* %24, i64 %26), !dbg !1669
  call void @_ZN7pvectorIiE4fillEi(%class.pvector* %24, i32 1073741823), !dbg !1672
  %27 = sext i32 %1 to i64, !dbg !1673
  %28 = call i32* @_ZN7pvectorIiEixEm(%class.pvector* %24, i64 %27), !dbg !1674
  store i32 0, i32* %28, align 4, !dbg !1675
  %29 = call i64 @_ZNK8CSRGraphIi10NodeWeightIiiELb1EE18num_edges_directedEv(%class.CSRGraph* %0), !dbg !1676
  call void @_ZN7pvectorIiEC1Em(%class.pvector* %23, i64 %29), !dbg !1677
  %30 = getelementptr [2 x i64], [2 x i64]* %22, i32 0, i32 0, !dbg !1663
  store i64 0, i64* %30, align 8, !dbg !1663
  %31 = getelementptr [2 x i64], [2 x i64]* %22, i32 0, i32 1, !dbg !1663
  store i64 9223372036854775807, i64* %31, align 8, !dbg !1663
  %32 = getelementptr [2 x i64], [2 x i64]* %21, i32 0, i32 0, !dbg !1662
  store i64 1, i64* %32, align 8, !dbg !1662
  %33 = getelementptr [2 x i64], [2 x i64]* %21, i32 0, i32 1, !dbg !1662
  store i64 0, i64* %33, align 8, !dbg !1662
  %34 = call i32* @_ZN7pvectorIiEixEm(%class.pvector* %23, i64 0), !dbg !1678
  store i32 %1, i32* %34, align 4, !dbg !1679
  call void @_ZN5Timer5StartEv(%class.Timer* %25), !dbg !1680
  %35 = load %"class.std::allocator.21", %"class.std::allocator.21"* %19, align 1, !dbg !1681
  store %"class.std::allocator.21" %35, %"class.std::allocator.21"* %18, align 1, !dbg !1681
  call void @_ZNSt6vectorIS_IiSaIiEESaIS1_EEC1EmRKS2_(%"class.std::vector.19"* %20, i64 0, %"class.std::allocator.21"* %18), !dbg !1683
  %36 = load %"class.std::vector.19", %"class.std::vector.19"* %20, align 8, !dbg !1661
  store %"class.std::vector.19" %36, %"class.std::vector.19"* %17, align 8, !dbg !1661
  br label %37, !dbg !1684

37:                                               ; preds = %160, %3
  %38 = phi i64 [ %47, %160 ], [ 0, %3 ]
  %39 = and i64 %38, 1, !dbg !1685
  %40 = getelementptr i64, i64* %30, i64 %39, !dbg !1684
  %41 = load i64, i64* %40, align 8, !dbg !1684
  %42 = icmp ne i64 %41, 9223372036854775807, !dbg !1686
  br i1 %42, label %43, label %161, !dbg !1687

43:                                               ; preds = %37
  %44 = phi i64 [ %38, %37 ]
  %45 = and i64 %44, 1, !dbg !1685
  %46 = getelementptr i64, i64* %30, i64 %45, !dbg !1684
  %47 = add i64 %44, 1, !dbg !1688
  %48 = and i64 %47, 1, !dbg !1689
  %49 = getelementptr i64, i64* %30, i64 %48, !dbg !1690
  %50 = getelementptr i64, i64* %32, i64 %45, !dbg !1691
  %51 = getelementptr i64, i64* %32, i64 %48, !dbg !1692
  br label %52, !dbg !1693

52:                                               ; preds = %68, %43
  %53 = phi i64 [ %69, %68 ], [ 0, %43 ]
  %54 = load i64, i64* %50, align 8, !dbg !1693
  %55 = icmp slt i64 %53, %54, !dbg !1694
  br i1 %55, label %56, label %70, !dbg !1695

56:                                               ; preds = %52
  %57 = phi i64 [ %53, %52 ]
  %58 = call i32* @_ZN7pvectorIiEixEm(%class.pvector* %23, i64 %57), !dbg !1696
  %59 = load i32, i32* %58, align 4, !dbg !1696
  %60 = sext i32 %59 to i64, !dbg !1697
  %61 = call i32* @_ZN7pvectorIiEixEm(%class.pvector* %24, i64 %60), !dbg !1698
  %62 = load i32, i32* %61, align 4, !dbg !1698
  %63 = load i64, i64* %46, align 8, !dbg !1699
  %64 = trunc i64 %63 to i32, !dbg !1699
  %65 = mul i32 %2, %64, !dbg !1700
  %66 = icmp sge i32 %62, %65, !dbg !1701
  br i1 %66, label %67, label %68, !dbg !1702

67:                                               ; preds = %56
  call void @_Z10RelaxEdgesRK8CSRGraphIi10NodeWeightIiiELb1EEiiR7pvectorIiERSt6vectorIS8_IiSaIiEESaISA_EE(%class.CSRGraph* %0, i32 %59, i32 %2, %class.pvector* %24, %"class.std::vector.19"* %17), !dbg !1703
  br label %68, !dbg !1702

68:                                               ; preds = %67, %56
  %69 = add i64 %57, 1, !dbg !1704
  br label %52, !dbg !1695

70:                                               ; preds = %52
  br label %71, !dbg !1705

71:                                               ; preds = %110, %70
  %72 = load i64, i64* %46, align 8, !dbg !1705
  %73 = call i64 @_ZNKSt6vectorIS_IiSaIiEESaIS1_EE4sizeEv(%"class.std::vector.19"* %17), !dbg !1706
  %74 = icmp slt i64 %72, %73, !dbg !1707
  br i1 %74, label %75, label %106, !dbg !1708

75:                                               ; preds = %71
  %76 = load i64, i64* %46, align 8, !dbg !1709
  %77 = call %"class.std::vector.24"* @_ZNSt6vectorIS_IiSaIiEESaIS1_EEixEm(%"class.std::vector.19"* %17, i64 %76), !dbg !1710
  %78 = call i8 @_ZNKSt6vectorIiSaIiEE5emptyEv(%"class.std::vector.24"* %77), !dbg !1711
  %79 = icmp eq i8 %78, 0, !dbg !1712
  br i1 %79, label %80, label %102, !dbg !1713

80:                                               ; preds = %75
  %81 = load i64, i64* %46, align 8, !dbg !1714
  %82 = call %"class.std::vector.24"* @_ZNSt6vectorIS_IiSaIiEESaIS1_EEixEm(%"class.std::vector.19"* %17, i64 %81), !dbg !1715
  %83 = call i64 @_ZNKSt6vectorIiSaIiEE4sizeEv(%"class.std::vector.24"* %82), !dbg !1716
  %84 = icmp slt i64 %83, 1000, !dbg !1717
  br i1 %84, label %85, label %102, !dbg !1718

85:                                               ; preds = %80
  %86 = load i64, i64* %46, align 8, !dbg !1719
  %87 = call %"class.std::vector.24"* @_ZNSt6vectorIS_IiSaIiEESaIS1_EEixEm(%"class.std::vector.19"* %17, i64 %86), !dbg !1720
  call void @_ZNSt6vectorIiSaIiEEC1ERKS1_(%"class.std::vector.24"* %16, %"class.std::vector.24"* %87), !dbg !1720
  %88 = load i64, i64* %46, align 8, !dbg !1721
  %89 = call %"class.std::vector.24"* @_ZNSt6vectorIS_IiSaIiEESaIS1_EEixEm(%"class.std::vector.19"* %17, i64 %88), !dbg !1722
  call void @_ZNSt6vectorIiSaIiEE6resizeEm(%"class.std::vector.24"* %89, i64 0), !dbg !1723
  %90 = call %"class.__gnu_cxx::__normal_iterator.29" @_ZNSt6vectorIiSaIiEE5beginEv(%"class.std::vector.24"* %16), !dbg !1659
  store %"class.__gnu_cxx::__normal_iterator.29" %90, %"class.__gnu_cxx::__normal_iterator.29"* %14, align 8, !dbg !1659
  call void @_ZN9__gnu_cxx17__normal_iteratorIPiSt6vectorIiSaIiEEEC1EOS5_(%"class.__gnu_cxx::__normal_iterator.29"* %15, %"class.__gnu_cxx::__normal_iterator.29"* %14), !dbg !1659
  %91 = load %"class.__gnu_cxx::__normal_iterator.29", %"class.__gnu_cxx::__normal_iterator.29"* %15, align 8, !dbg !1659
  store %"class.__gnu_cxx::__normal_iterator.29" %91, %"class.__gnu_cxx::__normal_iterator.29"* %13, align 8, !dbg !1659
  %92 = call %"class.__gnu_cxx::__normal_iterator.29" @_ZNSt6vectorIiSaIiEE3endEv(%"class.std::vector.24"* %16), !dbg !1659
  store %"class.__gnu_cxx::__normal_iterator.29" %92, %"class.__gnu_cxx::__normal_iterator.29"* %11, align 8, !dbg !1659
  call void @_ZN9__gnu_cxx17__normal_iteratorIPiSt6vectorIiSaIiEEEC1EOS5_(%"class.__gnu_cxx::__normal_iterator.29"* %12, %"class.__gnu_cxx::__normal_iterator.29"* %11), !dbg !1659
  %93 = load %"class.__gnu_cxx::__normal_iterator.29", %"class.__gnu_cxx::__normal_iterator.29"* %12, align 8, !dbg !1659
  store %"class.__gnu_cxx::__normal_iterator.29" %93, %"class.__gnu_cxx::__normal_iterator.29"* %10, align 8, !dbg !1659
  br label %94, !dbg !1659

94:                                               ; preds = %97, %85
  %95 = call i8 @_ZN9__gnu_cxxneIPiSt6vectorIiSaIiEEEEbRKNS_17__normal_iteratorIT_T0_EESA_(%"class.__gnu_cxx::__normal_iterator.29"* %13, %"class.__gnu_cxx::__normal_iterator.29"* %10), !dbg !1659
  %96 = icmp ne i8 %95, 0, !dbg !1724
  br i1 %96, label %97, label %101, !dbg !1724

97:                                               ; preds = %94
  %98 = call i32* @_ZNK9__gnu_cxx17__normal_iteratorIPiSt6vectorIiSaIiEEEdeEv(%"class.__gnu_cxx::__normal_iterator.29"* %13), !dbg !1659
  %99 = load i32, i32* %98, align 4, !dbg !1659
  call void @_Z10RelaxEdgesRK8CSRGraphIi10NodeWeightIiiELb1EEiiR7pvectorIiERSt6vectorIS8_IiSaIiEESaISA_EE(%class.CSRGraph* %0, i32 %99, i32 %2, %class.pvector* %24, %"class.std::vector.19"* %17), !dbg !1725
  %100 = call %"class.__gnu_cxx::__normal_iterator.29"* @_ZN9__gnu_cxx17__normal_iteratorIPiSt6vectorIiSaIiEEEppEv(%"class.__gnu_cxx::__normal_iterator.29"* %13), !dbg !1659
  br label %94, !dbg !1724

101:                                              ; preds = %94
  br label %102, !dbg !1718

102:                                              ; preds = %101, %80, %75
  %103 = phi i1 [ false, %75 ], [ %84, %80 ], [ %84, %101 ]
  br label %104, !dbg !1713

104:                                              ; preds = %102
  %105 = phi i1 [ %103, %102 ]
  br label %106, !dbg !1713

106:                                              ; preds = %104, %71
  %107 = phi i1 [ false, %71 ], [ %105, %104 ]
  br label %108, !dbg !1708

108:                                              ; preds = %106
  %109 = phi i1 [ %107, %106 ]
  br label %110, !dbg !1708

110:                                              ; preds = %108
  br i1 %109, label %71, label %111, !dbg !1718

111:                                              ; preds = %110
  %112 = load i64, i64* %46, align 8, !dbg !1726
  store i64 %112, i64* %9, align 8, !dbg !1657
  br label %113, !dbg !1727

113:                                              ; preds = %131, %111
  %114 = phi i1 [ %124, %131 ], [ true, %111 ]
  %115 = load i64, i64* %9, align 8, !dbg !1727
  %116 = call i64 @_ZNKSt6vectorIS_IiSaIiEESaIS1_EE4sizeEv(%"class.std::vector.19"* %17), !dbg !1728
  %117 = icmp slt i64 %115, %116, !dbg !1729
  %118 = and i1 %117, %114, !dbg !1730
  br i1 %118, label %119, label %132, !dbg !1730

119:                                              ; preds = %113
  %120 = load i64, i64* %9, align 8, !dbg !1731
  %121 = call %"class.std::vector.24"* @_ZNSt6vectorIS_IiSaIiEESaIS1_EEixEm(%"class.std::vector.19"* %17, i64 %120), !dbg !1732
  %122 = call i8 @_ZNKSt6vectorIiSaIiEE5emptyEv(%"class.std::vector.24"* %121), !dbg !1733
  %123 = icmp eq i8 %122, 0, !dbg !1712
  %124 = icmp ne i8 %122, 0, !dbg !1712
  br i1 %123, label %125, label %128

125:                                              ; preds = %119
  %126 = call i64* @_ZSt3minImERKT_S2_S2_(i64* %49, i64* %9), !dbg !1734
  %127 = load i64, i64* %126, align 8, !dbg !1734
  store i64 %127, i64* %49, align 8, !dbg !1735
  br label %131

128:                                              ; preds = %119
  %129 = load i64, i64* %9, align 8, !dbg !1736
  %130 = add i64 %129, 1, !dbg !1736
  store i64 %130, i64* %9, align 8, !dbg !1736
  br label %131

131:                                              ; preds = %125, %128
  br label %113, !dbg !1730

132:                                              ; preds = %113
  call void @_ZN5Timer4StopEv(%class.Timer* %25), !dbg !1737
  %133 = load i64, i64* %46, align 8, !dbg !1738
  %134 = trunc i64 %133 to i32, !dbg !1738
  %135 = call double @_ZNK5Timer9MillisecsEv(%class.Timer* %25), !dbg !1739
  %136 = load i64, i64* %50, align 8, !dbg !1740
  call void @_Z9PrintStepidl(i32 %134, double %135, i64 %136), !dbg !1741
  call void @_ZN5Timer5StartEv(%class.Timer* %25), !dbg !1742
  store i64 9223372036854775807, i64* %46, align 8, !dbg !1743
  store i64 0, i64* %50, align 8, !dbg !1744
  %137 = load i64, i64* %49, align 8, !dbg !1745
  %138 = call i64 @_ZNKSt6vectorIS_IiSaIiEESaIS1_EE4sizeEv(%"class.std::vector.19"* %17), !dbg !1746
  %139 = icmp slt i64 %137, %138, !dbg !1747
  br i1 %139, label %140, label %158, !dbg !1748

140:                                              ; preds = %132
  %141 = load i64, i64* %49, align 8, !dbg !1749
  %142 = call %"class.std::vector.24"* @_ZNSt6vectorIS_IiSaIiEESaIS1_EEixEm(%"class.std::vector.19"* %17, i64 %141), !dbg !1750
  %143 = call i64 @_ZNKSt6vectorIiSaIiEE4sizeEv(%"class.std::vector.24"* %142), !dbg !1751
  %144 = call i64 @_Z13fetch_and_addImmET_RS0_T0_(i64* %51, i64 %143), !dbg !1752
  %145 = load i64, i64* %49, align 8, !dbg !1753
  %146 = call %"class.std::vector.24"* @_ZNSt6vectorIS_IiSaIiEESaIS1_EEixEm(%"class.std::vector.19"* %17, i64 %145), !dbg !1754
  %147 = call %"class.__gnu_cxx::__normal_iterator.29" @_ZNSt6vectorIiSaIiEE5beginEv(%"class.std::vector.24"* %146), !dbg !1755
  store %"class.__gnu_cxx::__normal_iterator.29" %147, %"class.__gnu_cxx::__normal_iterator.29"* %7, align 8, !dbg !1754
  call void @_ZN9__gnu_cxx17__normal_iteratorIPiSt6vectorIiSaIiEEEC1EOS5_(%"class.__gnu_cxx::__normal_iterator.29"* %8, %"class.__gnu_cxx::__normal_iterator.29"* %7), !dbg !1754
  %148 = load i64, i64* %49, align 8, !dbg !1756
  %149 = call %"class.std::vector.24"* @_ZNSt6vectorIS_IiSaIiEESaIS1_EEixEm(%"class.std::vector.19"* %17, i64 %148), !dbg !1757
  %150 = call %"class.__gnu_cxx::__normal_iterator.29" @_ZNSt6vectorIiSaIiEE3endEv(%"class.std::vector.24"* %149), !dbg !1758
  store %"class.__gnu_cxx::__normal_iterator.29" %150, %"class.__gnu_cxx::__normal_iterator.29"* %5, align 8, !dbg !1757
  call void @_ZN9__gnu_cxx17__normal_iteratorIPiSt6vectorIiSaIiEEEC1EOS5_(%"class.__gnu_cxx::__normal_iterator.29"* %6, %"class.__gnu_cxx::__normal_iterator.29"* %5), !dbg !1757
  %151 = call i32* @_ZNK7pvectorIiE4dataEv(%class.pvector* %23), !dbg !1759
  %152 = getelementptr i32, i32* %151, i64 %144, !dbg !1760
  %153 = load %"class.__gnu_cxx::__normal_iterator.29", %"class.__gnu_cxx::__normal_iterator.29"* %8, align 8, !dbg !1761
  %154 = load %"class.__gnu_cxx::__normal_iterator.29", %"class.__gnu_cxx::__normal_iterator.29"* %6, align 8, !dbg !1761
  %155 = call i32* @_ZSt4copyIN9__gnu_cxx17__normal_iteratorIPiSt6vectorIiSaIiEEEES2_ET0_T_S8_S7_(%"class.__gnu_cxx::__normal_iterator.29" %153, %"class.__gnu_cxx::__normal_iterator.29" %154, i32* %152), !dbg !1761
  %156 = load i64, i64* %49, align 8, !dbg !1762
  %157 = call %"class.std::vector.24"* @_ZNSt6vectorIS_IiSaIiEESaIS1_EEixEm(%"class.std::vector.19"* %17, i64 %156), !dbg !1763
  call void @_ZNSt6vectorIiSaIiEE6resizeEm(%"class.std::vector.24"* %157, i64 0), !dbg !1764
  br label %159, !dbg !1748

158:                                              ; preds = %132
  br label %159, !dbg !1748

159:                                              ; preds = %140, %158
  br label %160, !dbg !1748

160:                                              ; preds = %159
  br label %37, !dbg !1687

161:                                              ; preds = %37
  %162 = call i32 (i8*, ...) @printf(i8* getelementptr inbounds ([21 x i8], [21 x i8]* @str73, i32 0, i32 0), i64 %38), !dbg !1765
  call void @_ZN7pvectorIiEC1EOS0_(%class.pvector* %4, %class.pvector* %24), !dbg !1766
  %163 = load %class.pvector, %class.pvector* %4, align 8, !dbg !1767
  ret %class.pvector %163, !dbg !1768
}

define linkonce_odr i32 @_ZN12SourcePickerI8CSRGraphIi10NodeWeightIiiELb1EEE8PickNextEv(%class.SourcePicker* %0) #1 !dbg !1769 {
  %2 = getelementptr %class.SourcePicker, %class.SourcePicker* %0, i32 0, i32 0, !dbg !1770
  %3 = load i32, i32* %2, align 4, !dbg !1770
  %4 = icmp ne i32 %3, -1, !dbg !1772
  br i1 %4, label %5, label %7

5:                                                ; preds = %1
  %6 = load i32, i32* %2, align 4, !dbg !1773
  br label %17

7:                                                ; preds = %1
  %8 = getelementptr %class.SourcePicker, %class.SourcePicker* %0, i32 0, i32 3, !dbg !1774
  %9 = getelementptr %class.SourcePicker, %class.SourcePicker* %0, i32 0, i32 2, !dbg !1775
  %10 = getelementptr %class.SourcePicker, %class.SourcePicker* %0, i32 0, i32 4, !dbg !1776
  br label %11, !dbg !1774

11:                                               ; preds = %11, %7
  %12 = call i32 @_ZNSt24uniform_int_distributionIiEclISt23mersenne_twister_engineImLm32ELm624ELm397ELm31ELm2567483615ELm11ELm4294967295ELm7ELm2636928640ELm15ELm4022730752ELm18ELm1812433253EEEEiRT_(%"class.std::uniform_int_distribution"* %8, %"class.std::mersenne_twister_engine"* %9), !dbg !1774
  %13 = load %class.CSRGraph*, %class.CSRGraph** %10, align 8, !dbg !1776
  %14 = call i64 @_ZNK8CSRGraphIi10NodeWeightIiiELb1EE10out_degreeEi(%class.CSRGraph* %13, i32 %12), !dbg !1777
  %15 = icmp eq i64 %14, 0, !dbg !1778
  br i1 %15, label %11, label %16, !dbg !1779

16:                                               ; preds = %11
  br label %17

17:                                               ; preds = %5, %16
  %18 = phi i32 [ %12, %16 ], [ %6, %5 ]
  br label %19

19:                                               ; preds = %17
  ret i32 %18, !dbg !1780
}

define linkonce_odr double @_ZNKSt6chrono8durationIdSt5ratioILl1ELl1EEE5countEv(%"struct.std::chrono::duration.16"* %0) #1 !dbg !1781 {
  %2 = getelementptr %"struct.std::chrono::duration.16", %"struct.std::chrono::duration.16"* %0, i32 0, i32 0, !dbg !1782
  %3 = load double, double* %2, align 8, !dbg !1782
  ret double %3, !dbg !1784
}

define linkonce_odr %"struct.std::chrono::duration.16" @_ZNSt6chrono13duration_castINS_8durationIdSt5ratioILl1ELl1EEEElS2_ILl1ELl1000000000EEEENSt9enable_ifIXsr13__is_durationIT_EE5valueES7_E4typeERKNS1_IT0_T1_EE(%"struct.std::chrono::duration"* %0) #1 !dbg !1785 {
  %2 = alloca %"struct.std::chrono::duration.16", i64 1, align 8
  %3 = alloca %"struct.std::chrono::duration.16", i64 1, align 8
  %4 = call %"struct.std::chrono::duration.16" @_ZNSt6chrono20__duration_cast_implINS_8durationIdSt5ratioILl1ELl1EEEES2_ILl1ELl1000000000EEdLb1ELb0EE6__castIlS5_EES4_RKNS1_IT_T0_EE(%"struct.std::chrono::duration"* %0), !dbg !1786
  store %"struct.std::chrono::duration.16" %4, %"struct.std::chrono::duration.16"* %2, align 8, !dbg !1786
  call void @_ZNSt6chrono8durationIdSt5ratioILl1ELl1EEEC1ERKS3_(%"struct.std::chrono::duration.16"* %3, %"struct.std::chrono::duration.16"* %2), !dbg !1786
  %5 = load %"struct.std::chrono::duration.16", %"struct.std::chrono::duration.16"* %3, align 8, !dbg !1788
  ret %"struct.std::chrono::duration.16" %5, !dbg !1789
}

define linkonce_odr %"struct.std::chrono::duration" @_ZNSt6chronomiINS_3_V212system_clockENS_8durationIlSt5ratioILl1ELl1000000000EEEES6_EENSt11common_typeIJT0_T1_EE4typeERKNS_10time_pointIT_S8_EERKNSC_ISD_S9_EE(%"struct.std::chrono::time_point"* %0, %"struct.std::chrono::time_point"* %1) #1 !dbg !1790 {
  %3 = alloca %"struct.std::chrono::duration", i64 1, align 8
  %4 = alloca %"struct.std::chrono::duration", i64 1, align 8
  %5 = alloca %"struct.std::chrono::duration", i64 1, align 8
  %6 = alloca %"struct.std::chrono::duration", i64 1, align 8
  %7 = call %"struct.std::chrono::duration" @_ZNKSt6chrono10time_pointINS_3_V212system_clockENS_8durationIlSt5ratioILl1ELl1000000000EEEEE16time_since_epochEv(%"struct.std::chrono::time_point"* %0), !dbg !1791
  store %"struct.std::chrono::duration" %7, %"struct.std::chrono::duration"* %5, align 8, !dbg !1793
  %8 = call %"struct.std::chrono::duration" @_ZNKSt6chrono10time_pointINS_3_V212system_clockENS_8durationIlSt5ratioILl1ELl1000000000EEEEE16time_since_epochEv(%"struct.std::chrono::time_point"* %1), !dbg !1794
  store %"struct.std::chrono::duration" %8, %"struct.std::chrono::duration"* %4, align 8, !dbg !1795
  %9 = call %"struct.std::chrono::duration" @_ZNSt6chronomiIlSt5ratioILl1ELl1000000000EElS2_EENSt11common_typeIJNS_8durationIT_T0_EENS4_IT1_T2_EEEE4typeERKS7_RKSA_(%"struct.std::chrono::duration"* %5, %"struct.std::chrono::duration"* %4), !dbg !1796
  store %"struct.std::chrono::duration" %9, %"struct.std::chrono::duration"* %3, align 8, !dbg !1793
  call void @_ZNSt6chrono8durationIlSt5ratioILl1ELl1000000000EEEC1ERKS3_(%"struct.std::chrono::duration"* %6, %"struct.std::chrono::duration"* %3), !dbg !1793
  %10 = load %"struct.std::chrono::duration", %"struct.std::chrono::duration"* %6, align 8, !dbg !1797
  ret %"struct.std::chrono::duration" %10, !dbg !1798
}

define i8 @_Z12SSSPVerifierRK8CSRGraphIi10NodeWeightIiiELb1EEiRK7pvectorIiE(%class.CSRGraph* %0, i32 %1, %class.pvector* %2) #1 !dbg !1799 {
  %4 = alloca %class.RangeIter, i64 1, align 8, !dbg !1800
  %5 = alloca %class.RangeIter, i64 1, align 8
  %6 = alloca %class.RangeIter, i64 1, align 8
  %7 = alloca %class.RangeIter, i64 1, align 8, !dbg !1800
  %8 = alloca %class.RangeIter, i64 1, align 8
  %9 = alloca %class.RangeIter, i64 1, align 8
  %10 = alloca %class.Range, i64 1, align 8
  %11 = alloca %"struct.std::pair", i64 1, align 8
  %12 = alloca i32, i64 1, align 4
  store i32 undef, i32* %12, align 4
  %13 = alloca %struct.NodeWeight, i64 1, align 8, !dbg !1802
  %14 = alloca %"class.CSRGraph<int, NodeWeight<int, int>, true>::Neighborhood", i64 1, align 8
  %15 = alloca %"struct.std::pair", i64 1, align 8
  %16 = alloca i32, i64 1, align 4
  store i32 undef, i32* %16, align 4
  %17 = alloca %"class.std::priority_queue", i64 1, align 8, !dbg !1803
  %18 = alloca %class.pvector, i64 1, align 8, !dbg !1804
  %19 = alloca i32, i64 1, align 4, !dbg !1805
  store i32 undef, i32* %19, align 4, !dbg !1805
  store i32 %1, i32* %19, align 4, !dbg !1805
  %20 = call i64 @_ZNK8CSRGraphIi10NodeWeightIiiELb1EE9num_nodesEv(%class.CSRGraph* %0), !dbg !1806
  call void @_ZN7pvectorIiEC1Em(%class.pvector* %18, i64 %20), !dbg !1807
  call void @_ZN7pvectorIiE4fillEi(%class.pvector* %18, i32 1073741823), !dbg !1810
  %21 = load i32, i32* %19, align 4, !dbg !1811
  %22 = sext i32 %21 to i64, !dbg !1811
  %23 = call i32* @_ZN7pvectorIiEixEm(%class.pvector* %18, i64 %22), !dbg !1812
  store i32 0, i32* %23, align 4, !dbg !1813
  call void @_ZNSt14priority_queueISt4pairIiiESt6vectorIS1_SaIS1_EESt7greaterIS1_EEC1IS4_vEEv(%"class.std::priority_queue"* %17), !dbg !1814
  store i32 0, i32* %16, align 4, !dbg !1815
  %24 = call %"struct.std::pair" @_ZSt9make_pairIiRiESt4pairINSt17__decay_and_stripIT_E6__typeENS2_IT0_E6__typeEEOS3_OS6_(i32* %16, i32* %19), !dbg !1816
  store %"struct.std::pair" %24, %"struct.std::pair"* %15, align 4, !dbg !1816
  call void @_ZNSt14priority_queueISt4pairIiiESt6vectorIS1_SaIS1_EESt7greaterIS1_EE4pushEOS1_(%"class.std::priority_queue"* %17, %"struct.std::pair"* %15), !dbg !1817
  br label %25, !dbg !1818

25:                                               ; preds = %69, %3
  %26 = call i8 @_ZNKSt14priority_queueISt4pairIiiESt6vectorIS1_SaIS1_EESt7greaterIS1_EE5emptyEv(%"class.std::priority_queue"* %17), !dbg !1818
  %27 = icmp eq i8 %26, 0, !dbg !1819
  br i1 %27, label %28, label %70, !dbg !1820

28:                                               ; preds = %25
  %29 = call %"struct.std::pair"* @_ZNKSt14priority_queueISt4pairIiiESt6vectorIS1_SaIS1_EESt7greaterIS1_EE3topEv(%"class.std::priority_queue"* %17), !dbg !1821
  %30 = getelementptr %"struct.std::pair", %"struct.std::pair"* %29, i32 0, i32 0, !dbg !1822
  %31 = load i32, i32* %30, align 4, !dbg !1823
  %32 = call %"struct.std::pair"* @_ZNKSt14priority_queueISt4pairIiiESt6vectorIS1_SaIS1_EESt7greaterIS1_EE3topEv(%"class.std::priority_queue"* %17), !dbg !1824
  %33 = getelementptr %"struct.std::pair", %"struct.std::pair"* %32, i32 0, i32 1, !dbg !1825
  %34 = load i32, i32* %33, align 4, !dbg !1826
  call void @_ZNSt14priority_queueISt4pairIiiESt6vectorIS1_SaIS1_EESt7greaterIS1_EE3popEv(%"class.std::priority_queue"* %17), !dbg !1827
  %35 = sext i32 %34 to i64, !dbg !1828
  %36 = call i32* @_ZN7pvectorIiEixEm(%class.pvector* %18, i64 %35), !dbg !1829
  %37 = load i32, i32* %36, align 4, !dbg !1829
  %38 = icmp eq i32 %31, %37, !dbg !1830
  br i1 %38, label %39, label %69, !dbg !1831

39:                                               ; preds = %28
  %40 = call %"class.CSRGraph<int, NodeWeight<int, int>, true>::Neighborhood" @_ZNK8CSRGraphIi10NodeWeightIiiELb1EE9out_neighEim(%class.CSRGraph* %0, i32 %34, i64 0), !dbg !1832
  store %"class.CSRGraph<int, NodeWeight<int, int>, true>::Neighborhood" %40, %"class.CSRGraph<int, NodeWeight<int, int>, true>::Neighborhood"* %14, align 8, !dbg !1833
  %41 = call %struct.NodeWeight* @_ZN8CSRGraphIi10NodeWeightIiiELb1EE12Neighborhood5beginEv(%"class.CSRGraph<int, NodeWeight<int, int>, true>::Neighborhood"* %14), !dbg !1834
  %42 = call %struct.NodeWeight* @_ZN8CSRGraphIi10NodeWeightIiiELb1EE12Neighborhood3endEv(%"class.CSRGraph<int, NodeWeight<int, int>, true>::Neighborhood"* %14), !dbg !1834
  %43 = getelementptr %struct.NodeWeight, %struct.NodeWeight* %13, i32 0, i32 1, !dbg !1835
  %44 = getelementptr %struct.NodeWeight, %struct.NodeWeight* %13, i32 0, i32 0, !dbg !1836
  br label %45, !dbg !1834

45:                                               ; preds = %66, %39
  %46 = phi %struct.NodeWeight* [ %67, %66 ], [ %41, %39 ]
  %47 = icmp ne %struct.NodeWeight* %46, %42, !dbg !1834
  br i1 %47, label %48, label %68, !dbg !1837

48:                                               ; preds = %45
  %49 = phi %struct.NodeWeight* [ %46, %45 ]
  call void @_ZN10NodeWeightIiiEC1ERKS0_(%struct.NodeWeight* %13, %struct.NodeWeight* %49), !dbg !1834
  %50 = load i32, i32* %43, align 4, !dbg !1838
  %51 = add i32 %31, %50, !dbg !1839
  %52 = load i32, i32* %44, align 4, !dbg !1840
  %53 = sext i32 %52 to i64, !dbg !1840
  %54 = call i32* @_ZN7pvectorIiEixEm(%class.pvector* %18, i64 %53), !dbg !1841
  %55 = load i32, i32* %54, align 4, !dbg !1841
  %56 = icmp slt i32 %51, %55, !dbg !1842
  br i1 %56, label %57, label %66, !dbg !1843

57:                                               ; preds = %48
  %58 = load i32, i32* %44, align 4, !dbg !1844
  %59 = sext i32 %58 to i64, !dbg !1844
  %60 = call i32* @_ZN7pvectorIiEixEm(%class.pvector* %18, i64 %59), !dbg !1845
  %61 = load i32, i32* %43, align 4, !dbg !1846
  %62 = add i32 %31, %61, !dbg !1847
  store i32 %62, i32* %60, align 4, !dbg !1848
  %63 = load i32, i32* %43, align 4, !dbg !1849
  %64 = add i32 %31, %63, !dbg !1850
  store i32 %64, i32* %12, align 4, !dbg !1851
